---
triple:          'arm64-apple-darwin'
binary-path:     '/Users/lihaji/Desktop/Dynamic-A-Star/D-Star'
relocations:
  - { offsetInCU: 0x3F, offset: 0x3F, size: 0x8, addend: 0x0, symName: _directions, symObjAddr: 0x70C0, symBinAddr: 0x10000C000, symSize: 0x0 }
  - { offsetInCU: 0x74, offset: 0x74, size: 0x8, addend: 0x0, symName: _node, symObjAddr: 0x41B40, symBinAddr: 0x10000C040, symSize: 0x0 }
  - { offsetInCU: 0xFB, offset: 0xFB, size: 0x8, addend: 0x0, symName: _mp, symObjAddr: 0x46A28, symBinAddr: 0x100010F28, symSize: 0x0 }
  - { offsetInCU: 0x7731, offset: 0x7731, size: 0x8, addend: 0x0, symName: __ZNSt3__124__put_character_sequenceB7v160006IcNS_11char_traitsIcEEEERNS_13basic_ostreamIT_T0_EES7_PKS4_m, symObjAddr: 0x6200, symBinAddr: 0x10000693C, symSize: 0x1F4 }
  - { offsetInCU: 0x8FD0, offset: 0x8FD0, size: 0x8, addend: 0x0, symName: __ZNSt3__1rsB7v160006IcNS_11char_traitsIcEENS_9allocatorIcEEEERNS_13basic_istreamIT_T0_EES9_RNS_12basic_stringIS6_S7_T1_EE, symObjAddr: 0x2B4, symBinAddr: 0x1000009F0, symSize: 0x324 }
  - { offsetInCU: 0x909F, offset: 0x909F, size: 0x8, addend: 0x0, symName: __ZNSt3__1neB7v160006ERKNS_21__tree_const_iteratorIP4NodePNS_11__tree_nodeIS2_PvEElEES9_, symObjAddr: 0xB18, symBinAddr: 0x100001254, symSize: 0x34 }
  - { offsetInCU: 0x98EF, offset: 0x98EF, size: 0x8, addend: 0x0, symName: __ZNSt3__1lsB7v160006INS_11char_traitsIcEEEERNS_13basic_ostreamIcT_EES6_PKc, symObjAddr: 0x1104, symBinAddr: 0x100001840, symSize: 0x48 }
  - { offsetInCU: 0x9935, offset: 0x9935, size: 0x8, addend: 0x0, symName: __ZNSt3__14endlB7v160006IcNS_11char_traitsIcEEEERNS_13basic_ostreamIT_T0_EES7_, symObjAddr: 0x1178, symBinAddr: 0x1000018B4, symSize: 0x58 }
  - { offsetInCU: 0x9975, offset: 0x9975, size: 0x8, addend: 0x0, symName: __ZNSt3__1lsB7v160006INS_11char_traitsIcEEEERNS_13basic_ostreamIcT_EES6_c, symObjAddr: 0x11D0, symBinAddr: 0x10000190C, symSize: 0x34 }
  - { offsetInCU: 0x99C6, offset: 0x99C6, size: 0x8, addend: 0x0, symName: __ZNSt3__1lsB7v160006IcNS_11char_traitsIcEEEERNS_13basic_ostreamIT_T0_EES7_RKNS_8__iom_t5E, symObjAddr: 0x1644, symBinAddr: 0x100001D80, symSize: 0x40 }
  - { offsetInCU: 0x9A12, offset: 0x9A12, size: 0x8, addend: 0x0, symName: __ZNSt3__15fixedB7v160006ERNS_8ios_baseE, symObjAddr: 0x16C4, symBinAddr: 0x100001E00, symSize: 0x30 }
  - { offsetInCU: 0x9A40, offset: 0x9A40, size: 0x8, addend: 0x0, symName: __ZNSt3__112setprecisionB7v160006Ei, symObjAddr: 0x16F4, symBinAddr: 0x100001E30, symSize: 0x2C }
  - { offsetInCU: 0x9A6C, offset: 0x9A6C, size: 0x8, addend: 0x0, symName: __ZNSt3__119__debug_db_insert_cB7v160006INS_12basic_stringIcNS_11char_traitsIcEENS_9allocatorIcEEEEEEvPT_, symObjAddr: 0x1A74, symBinAddr: 0x1000021B0, symSize: 0x10 }
  - { offsetInCU: 0x9A9D, offset: 0x9A9D, size: 0x8, addend: 0x0, symName: __ZNSt3__130__libcpp_is_constant_evaluatedB7v160006Ev, symObjAddr: 0x1C14, symBinAddr: 0x100002350, symSize: 0xC }
  - { offsetInCU: 0x9ABA, offset: 0x9ABA, size: 0x8, addend: 0x0, symName: __ZNSt3__117__libcpp_allocateB7v160006Emm, symObjAddr: 0x1F0C, symBinAddr: 0x100002648, symSize: 0x28 }
  - { offsetInCU: 0x9AF7, offset: 0x9AF7, size: 0x8, addend: 0x0, symName: __ZNSt3__121__libcpp_operator_newB7v160006IJmEEEPvDpT_, symObjAddr: 0x1F48, symBinAddr: 0x100002684, symSize: 0x24 }
  - { offsetInCU: 0x9B63, offset: 0x9B63, size: 0x8, addend: 0x0, symName: __ZNSt3__119__libcpp_deallocateB7v160006EPvmm, symObjAddr: 0x2618, symBinAddr: 0x100002D54, symSize: 0x30 }
  - { offsetInCU: 0x9BAB, offset: 0x9BAB, size: 0x8, addend: 0x0, symName: __ZNSt3__127__do_deallocate_handle_sizeB7v160006IJEEEvPvmDpT_, symObjAddr: 0x2648, symBinAddr: 0x100002D84, symSize: 0x28 }
  - { offsetInCU: 0x9BE9, offset: 0x9BE9, size: 0x8, addend: 0x0, symName: __ZNSt3__124__libcpp_operator_deleteB7v160006IJPvEEEvDpT_, symObjAddr: 0x2670, symBinAddr: 0x100002DAC, symSize: 0x24 }
  - { offsetInCU: 0xA3A9, offset: 0xA3A9, size: 0x8, addend: 0x0, symName: __ZNSt3__19use_facetB7v160006INS_5ctypeIcEEEERKT_RKNS_6localeE, symObjAddr: 0x2E1C, symBinAddr: 0x100003558, symSize: 0x2C }
  - { offsetInCU: 0xA789, offset: 0xA789, size: 0x8, addend: 0x0, symName: __ZNSt3__125__debug_db_invalidate_allB7v160006INS_12basic_stringIcNS_11char_traitsIcEENS_9allocatorIcEEEEEEvPT_, symObjAddr: 0x30F8, symBinAddr: 0x100003834, symSize: 0x10 }
  - { offsetInCU: 0xAA0D, offset: 0xAA0D, size: 0x8, addend: 0x0, symName: __ZNSt3__127__tree_balance_after_insertB7v160006IPNS_16__tree_node_baseIPvEEEEvT_S5_, symObjAddr: 0x3EC0, symBinAddr: 0x1000045FC, symSize: 0x340 }
  - { offsetInCU: 0xAA81, offset: 0xAA81, size: 0x8, addend: 0x0, symName: __ZNSt3__120__tree_is_left_childB7v160006IPNS_16__tree_node_baseIPvEEEEbT_, symObjAddr: 0x4240, symBinAddr: 0x10000497C, symSize: 0x2C }
  - { offsetInCU: 0xAAB6, offset: 0xAAB6, size: 0x8, addend: 0x0, symName: __ZNSt3__118__tree_left_rotateB7v160006IPNS_16__tree_node_baseIPvEEEEvT_, symObjAddr: 0x426C, symBinAddr: 0x1000049A8, symSize: 0xEC }
  - { offsetInCU: 0xAAF8, offset: 0xAAF8, size: 0x8, addend: 0x0, symName: __ZNSt3__119__tree_right_rotateB7v160006IPNS_16__tree_node_baseIPvEEEEvT_, symObjAddr: 0x4358, symBinAddr: 0x100004A94, symSize: 0xCC }
  - { offsetInCU: 0xAB3A, offset: 0xAB3A, size: 0x8, addend: 0x0, symName: __ZNSt3__1eqB7v160006ERKNS_21__tree_const_iteratorIP4NodePNS_11__tree_nodeIS2_PvEElEES9_, symObjAddr: 0x47FC, symBinAddr: 0x100004F38, symSize: 0x30 }
  - { offsetInCU: 0xAB77, offset: 0xAB77, size: 0x8, addend: 0x0, symName: __ZNSt3__116__tree_next_iterB7v160006IPNS_15__tree_end_nodeIPNS_16__tree_node_baseIPvEEEES5_EET_T0_, symObjAddr: 0x4864, symBinAddr: 0x100004FA0, symSize: 0x80 }
  - { offsetInCU: 0xABB5, offset: 0xABB5, size: 0x8, addend: 0x0, symName: __ZNSt3__110__tree_minB7v160006IPNS_16__tree_node_baseIPvEEEET_S5_, symObjAddr: 0x48E4, symBinAddr: 0x100005020, symSize: 0x40 }
  - { offsetInCU: 0xABEA, offset: 0xABEA, size: 0x8, addend: 0x0, symName: __ZNSt3__1eqB7v160006ERKNS_15__tree_iteratorIP4NodePNS_11__tree_nodeIS2_PvEElEES9_, symObjAddr: 0x4AD4, symBinAddr: 0x100005210, symSize: 0x30 }
  - { offsetInCU: 0xAC27, offset: 0xAC27, size: 0x8, addend: 0x0, symName: __ZNSt3__1neB7v160006ERKNS_15__tree_iteratorIP4NodePNS_11__tree_nodeIS2_PvEElEES9_, symObjAddr: 0x4C40, symBinAddr: 0x10000537C, symSize: 0x34 }
  - { offsetInCU: 0xAC64, offset: 0xAC64, size: 0x8, addend: 0x0, symName: __ZNSt3__113__tree_removeB7v160006IPNS_16__tree_node_baseIPvEEEEvT_S5_, symObjAddr: 0x4DB4, symBinAddr: 0x1000054F0, symSize: 0x6E0 }
  - { offsetInCU: 0xACE2, offset: 0xACE2, size: 0x8, addend: 0x0, symName: __ZNSt3__111__tree_nextB7v160006IPNS_16__tree_node_baseIPvEEEET_S5_, symObjAddr: 0x5494, symBinAddr: 0x100005BD0, symSize: 0x80 }
  - { offsetInCU: 0xAD35, offset: 0xAD35, size: 0x8, addend: 0x0, symName: __ZNSt3__116__pad_and_outputB7v160006IcNS_11char_traitsIcEEEENS_19ostreambuf_iteratorIT_T0_EES6_PKS4_S8_S8_RNS_8ios_baseES4_, symObjAddr: 0x6458, symBinAddr: 0x100006B94, symSize: 0x248 }
  - { offsetInCU: 0xAE04, offset: 0xAE04, size: 0x8, addend: 0x0, symName: __ZNSt3__112__to_addressB7v160006IKcEEPT_S3_, symObjAddr: 0x6868, symBinAddr: 0x100006FA4, symSize: 0x14 }
  - { offsetInCU: 0xAE6C, offset: 0xAE6C, size: 0x8, addend: 0x0, symName: __ZNSt3__118__constexpr_strlenB7v160006EPKc, symObjAddr: 0x6A60, symBinAddr: 0x10000719C, symSize: 0x24 }
  - { offsetInCU: 0xAEA4, offset: 0xAEA4, size: 0x8, addend: 0x0, symName: __ZSt28__throw_bad_array_new_lengthB7v160006v, symObjAddr: 0x1ED8, symBinAddr: 0x100002614, symSize: 0x34 }
  - { offsetInCU: 0xB060, offset: 0xB060, size: 0x8, addend: 0x0, symName: _n, symObjAddr: 0x49980, symBinAddr: 0x100013E80, symSize: 0x0 }
  - { offsetInCU: 0xB075, offset: 0xB075, size: 0x8, addend: 0x0, symName: _isPath, symObjAddr: 0x49988, symBinAddr: 0x100013E88, symSize: 0x0 }
  - { offsetInCU: 0xB401, offset: 0xB401, size: 0x8, addend: 0x0, symName: _OpenList, symObjAddr: 0x499A0, symBinAddr: 0x100013EA0, symSize: 0x0 }
  - { offsetInCU: 0xB706, offset: 0xB706, size: 0x8, addend: 0x0, symName: _CloseList, symObjAddr: 0x499B8, symBinAddr: 0x100013EB8, symSize: 0x0 }
  - { offsetInCU: 0xD9ED, offset: 0xD9ED, size: 0x8, addend: 0x0, symName: __ZNSt3__112basic_stringIcNS_11char_traitsIcEENS_9allocatorIcEEEC1B7v160006Ev, symObjAddr: 0x0, symBinAddr: 0x10000073C, symSize: 0x2C }
  - { offsetInCU: 0xDA17, offset: 0xDA17, size: 0x8, addend: 0x0, symName: __ZNSt3__13mapIibNS_4lessIiEENS_9allocatorINS_4pairIKibEEEEEC1B7v160006Ev, symObjAddr: 0x38, symBinAddr: 0x100000774, symSize: 0x2C }
  - { offsetInCU: 0xDA41, offset: 0xDA41, size: 0x8, addend: 0x0, symName: __ZNSt3__13mapIibNS_4lessIiEENS_9allocatorINS_4pairIKibEEEEED1B7v160006Ev, symObjAddr: 0x64, symBinAddr: 0x1000007A0, symSize: 0x2C }
  - { offsetInCU: 0xDA6B, offset: 0xDA6B, size: 0x8, addend: 0x0, symName: __ZNSt3__13setIP4NodeNS_4lessIS2_EENS_9allocatorIS2_EEEC1B7v160006Ev, symObjAddr: 0x90, symBinAddr: 0x1000007CC, symSize: 0x2C }
  - { offsetInCU: 0xDA95, offset: 0xDA95, size: 0x8, addend: 0x0, symName: __ZNSt3__13setIP4NodeNS_4lessIS2_EENS_9allocatorIS2_EEED1B7v160006Ev, symObjAddr: 0xBC, symBinAddr: 0x1000007F8, symSize: 0x2C }
  - { offsetInCU: 0xDABF, offset: 0xDABF, size: 0x8, addend: 0x0, symName: __Z4initv, symObjAddr: 0xE8, symBinAddr: 0x100000824, symSize: 0x1CC }
  - { offsetInCU: 0xDB3F, offset: 0xDB3F, size: 0x8, addend: 0x0, symName: __Z11isValidNodeii, symObjAddr: 0x5D8, symBinAddr: 0x100000D14, symSize: 0xF8 }
  - { offsetInCU: 0xDB7A, offset: 0xDB7A, size: 0x8, addend: 0x0, symName: __ZNSt3__112basic_stringIcNS_11char_traitsIcEENS_9allocatorIcEEEixB7v160006Em, symObjAddr: 0x6D0, symBinAddr: 0x100000E0C, symSize: 0x30 }
  - { offsetInCU: 0xDBAF, offset: 0xDBAF, size: 0x8, addend: 0x0, symName: __Z8dijkstraii, symObjAddr: 0x700, symBinAddr: 0x100000E3C, symSize: 0x36C }
  - { offsetInCU: 0xDCC6, offset: 0xDCC6, size: 0x8, addend: 0x0, symName: __ZNSt3__13setIP4NodeNS_4lessIS2_EENS_9allocatorIS2_EEE6insertB7v160006ERKS2_, symObjAddr: 0xA6C, symBinAddr: 0x1000011A8, symSize: 0x4C }
  - { offsetInCU: 0xDCFB, offset: 0xDCFB, size: 0x8, addend: 0x0, symName: __ZNKSt3__13setIP4NodeNS_4lessIS2_EENS_9allocatorIS2_EEE4sizeB7v160006Ev, symObjAddr: 0xAB8, symBinAddr: 0x1000011F4, symSize: 0x28 }
  - { offsetInCU: 0xDD21, offset: 0xDD21, size: 0x8, addend: 0x0, symName: __ZNSt3__13setIP4NodeNS_4lessIS2_EENS_9allocatorIS2_EEE5beginB7v160006Ev, symObjAddr: 0xAE0, symBinAddr: 0x10000121C, symSize: 0x38 }
  - { offsetInCU: 0xDD47, offset: 0xDD47, size: 0x8, addend: 0x0, symName: __ZNSt3__13setIP4NodeNS_4lessIS2_EENS_9allocatorIS2_EEE3endB7v160006Ev, symObjAddr: 0xB4C, symBinAddr: 0x100001288, symSize: 0x38 }
  - { offsetInCU: 0xDD6D, offset: 0xDD6D, size: 0x8, addend: 0x0, symName: __ZNKSt3__121__tree_const_iteratorIP4NodePNS_11__tree_nodeIS2_PvEElEdeB7v160006Ev, symObjAddr: 0xB84, symBinAddr: 0x1000012C0, symSize: 0x28 }
  - { offsetInCU: 0xDD93, offset: 0xDD93, size: 0x8, addend: 0x0, symName: __ZNSt3__121__tree_const_iteratorIP4NodePNS_11__tree_nodeIS2_PvEElEppB7v160006Ei, symObjAddr: 0xBAC, symBinAddr: 0x1000012E8, symSize: 0x34 }
  - { offsetInCU: 0xDDD4, offset: 0xDDD4, size: 0x8, addend: 0x0, symName: __ZNSt3__13setIP4NodeNS_4lessIS2_EENS_9allocatorIS2_EEE5eraseB7v160006ERKS2_, symObjAddr: 0xBE0, symBinAddr: 0x10000131C, symSize: 0x2C }
  - { offsetInCU: 0xDE09, offset: 0xDE09, size: 0x8, addend: 0x0, symName: __Z11outPut_Pathv, symObjAddr: 0xC0C, symBinAddr: 0x100001348, symSize: 0x2B4 }
  - { offsetInCU: 0xDF28, offset: 0xDF28, size: 0x8, addend: 0x0, symName: __ZNSt3__114basic_ofstreamIcNS_11char_traitsIcEEEC1EPKcj, symObjAddr: 0xEC0, symBinAddr: 0x1000015FC, symSize: 0x17C }
  - { offsetInCU: 0xDF72, offset: 0xDF72, size: 0x8, addend: 0x0, symName: __ZNSt3__13mapIibNS_4lessIiEENS_9allocatorINS_4pairIKibEEEEEixERS5_, symObjAddr: 0x103C, symBinAddr: 0x100001778, symSize: 0xC8 }
  - { offsetInCU: 0xDFEB, offset: 0xDFEB, size: 0x8, addend: 0x0, symName: __ZNSt3__113basic_ostreamIcNS_11char_traitsIcEEElsB7v160006EPFRS3_S4_E, symObjAddr: 0x114C, symBinAddr: 0x100001888, symSize: 0x2C }
  - { offsetInCU: 0xE024, offset: 0xE024, size: 0x8, addend: 0x0, symName: __ZNSt3__114basic_ofstreamIcNS_11char_traitsIcEEED1Ev, symObjAddr: 0x1204, symBinAddr: 0x100001940, symSize: 0x70 }
  - { offsetInCU: 0xE051, offset: 0xE051, size: 0x8, addend: 0x0, symName: __Z14outPut_H_graphv, symObjAddr: 0x1274, symBinAddr: 0x1000019B0, symSize: 0x3D0 }
  - { offsetInCU: 0xE0FC, offset: 0xE0FC, size: 0x8, addend: 0x0, symName: __ZNSt3__113basic_ostreamIcNS_11char_traitsIcEEElsB7v160006EPFRNS_8ios_baseES5_E, symObjAddr: 0x1684, symBinAddr: 0x100001DC0, symSize: 0x40 }
  - { offsetInCU: 0xE130, offset: 0xE130, size: 0x8, addend: 0x0, symName: __Z6outPutv, symObjAddr: 0x1720, symBinAddr: 0x100001E5C, symSize: 0xE4 }
  - { offsetInCU: 0xE15A, offset: 0xE15A, size: 0x8, addend: 0x0, symName: _main, symObjAddr: 0x1804, symBinAddr: 0x100001F40, symSize: 0x54 }
  - { offsetInCU: 0xE174, offset: 0xE174, size: 0x8, addend: 0x0, symName: __ZNSt3__114basic_ofstreamIcNS_11char_traitsIcEEED2Ev, symObjAddr: 0x1858, symBinAddr: 0x100001F94, symSize: 0x9C }
  - { offsetInCU: 0xE1AE, offset: 0xE1AE, size: 0x8, addend: 0x0, symName: __ZTv0_n24_NSt3__114basic_ofstreamIcNS_11char_traitsIcEEED1Ev, symObjAddr: 0x18F4, symBinAddr: 0x100002030, symSize: 0x28 }
  - { offsetInCU: 0xE1C5, offset: 0xE1C5, size: 0x8, addend: 0x0, symName: __ZNSt3__18ios_base4setfB7v160006Ejj, symObjAddr: 0x191C, symBinAddr: 0x100002058, symSize: 0x5C }
  - { offsetInCU: 0xE21A, offset: 0xE21A, size: 0x8, addend: 0x0, symName: __ZNSt3__18ios_base6unsetfB7v160006Ej, symObjAddr: 0x1978, symBinAddr: 0x1000020B4, symSize: 0x28 }
  - { offsetInCU: 0xE251, offset: 0xE251, size: 0x8, addend: 0x0, symName: __ZNSt3__18__iom_t5C1B7v160006Ei, symObjAddr: 0x19A0, symBinAddr: 0x1000020DC, symSize: 0x34 }
  - { offsetInCU: 0xE289, offset: 0xE289, size: 0x8, addend: 0x0, symName: __ZNSt3__18__iom_t5C2B7v160006Ei, symObjAddr: 0x19D4, symBinAddr: 0x100002110, symSize: 0x20 }
  - { offsetInCU: 0xE2C1, offset: 0xE2C1, size: 0x8, addend: 0x0, symName: __ZNSt3__112basic_stringIcNS_11char_traitsIcEENS_9allocatorIcEEEC2B7v160006Ev, symObjAddr: 0x19F4, symBinAddr: 0x100002130, symSize: 0x44 }
  - { offsetInCU: 0xE2F0, offset: 0xE2F0, size: 0x8, addend: 0x0, symName: __ZNSt3__117__compressed_pairINS_12basic_stringIcNS_11char_traitsIcEENS_9allocatorIcEEE5__repES5_EC1B7v160006INS_18__default_init_tagESA_EEOT_OT0_, symObjAddr: 0x1A38, symBinAddr: 0x100002174, symSize: 0x3C }
  - { offsetInCU: 0xE348, offset: 0xE348, size: 0x8, addend: 0x0, symName: __ZNSt3__112basic_stringIcNS_11char_traitsIcEENS_9allocatorIcEEE14__default_initB7v160006Ev, symObjAddr: 0x1A84, symBinAddr: 0x1000021C0, symSize: 0xB0 }
  - { offsetInCU: 0xE39A, offset: 0xE39A, size: 0x8, addend: 0x0, symName: __ZNSt3__117__compressed_pairINS_12basic_stringIcNS_11char_traitsIcEENS_9allocatorIcEEE5__repES5_EC2B7v160006INS_18__default_init_tagESA_EEOT_OT0_, symObjAddr: 0x1B34, symBinAddr: 0x100002270, symSize: 0x3C }
  - { offsetInCU: 0xE3F2, offset: 0xE3F2, size: 0x8, addend: 0x0, symName: __ZNSt3__122__compressed_pair_elemINS_12basic_stringIcNS_11char_traitsIcEENS_9allocatorIcEEE5__repELi0ELb0EEC2B7v160006ENS_18__default_init_tagE, symObjAddr: 0x1B70, symBinAddr: 0x1000022AC, symSize: 0x14 }
  - { offsetInCU: 0xE427, offset: 0xE427, size: 0x8, addend: 0x0, symName: __ZNSt3__122__compressed_pair_elemINS_9allocatorIcEELi1ELb1EEC2B7v160006ENS_18__default_init_tagE, symObjAddr: 0x1B84, symBinAddr: 0x1000022C0, symSize: 0x2C }
  - { offsetInCU: 0xE45C, offset: 0xE45C, size: 0x8, addend: 0x0, symName: __ZNSt3__19allocatorIcEC2B7v160006Ev, symObjAddr: 0x1BB0, symBinAddr: 0x1000022EC, symSize: 0x2C }
  - { offsetInCU: 0xE486, offset: 0xE486, size: 0x8, addend: 0x0, symName: __ZNSt3__116__non_trivial_ifILb1ENS_9allocatorIcEEEC2B7v160006Ev, symObjAddr: 0x1BDC, symBinAddr: 0x100002318, symSize: 0x14 }
  - { offsetInCU: 0xE4B0, offset: 0xE4B0, size: 0x8, addend: 0x0, symName: __ZNSt3__117__compressed_pairINS_12basic_stringIcNS_11char_traitsIcEENS_9allocatorIcEEE5__repES5_E5firstB7v160006Ev, symObjAddr: 0x1BF0, symBinAddr: 0x10000232C, symSize: 0x24 }
  - { offsetInCU: 0xE4D6, offset: 0xE4D6, size: 0x8, addend: 0x0, symName: __ZNSt3__112basic_stringIcNS_11char_traitsIcEENS_9allocatorIcEEE11__recommendB7v160006Em, symObjAddr: 0x1C20, symBinAddr: 0x10000235C, symSize: 0x9C }
  - { offsetInCU: 0xE509, offset: 0xE509, size: 0x8, addend: 0x0, symName: __ZNSt3__116allocator_traitsINS_9allocatorIcEEE8allocateB7v160006ERS2_m, symObjAddr: 0x1CBC, symBinAddr: 0x1000023F8, symSize: 0x2C }
  - { offsetInCU: 0xE53C, offset: 0xE53C, size: 0x8, addend: 0x0, symName: __ZNSt3__112basic_stringIcNS_11char_traitsIcEENS_9allocatorIcEEE7__allocB7v160006Ev, symObjAddr: 0x1CE8, symBinAddr: 0x100002424, symSize: 0x24 }
  - { offsetInCU: 0xE562, offset: 0xE562, size: 0x8, addend: 0x0, symName: __ZNSt3__112basic_stringIcNS_11char_traitsIcEENS_9allocatorIcEEE16__begin_lifetimeB7v160006EPcm, symObjAddr: 0x1D0C, symBinAddr: 0x100002448, symSize: 0x14 }
  - { offsetInCU: 0xE595, offset: 0xE595, size: 0x8, addend: 0x0, symName: __ZNSt3__112basic_stringIcNS_11char_traitsIcEENS_9allocatorIcEEE18__set_long_pointerB7v160006EPc, symObjAddr: 0x1D20, symBinAddr: 0x10000245C, symSize: 0x38 }
  - { offsetInCU: 0xE5CA, offset: 0xE5CA, size: 0x8, addend: 0x0, symName: __ZNSt3__112basic_stringIcNS_11char_traitsIcEENS_9allocatorIcEEE14__set_long_capB7v160006Em, symObjAddr: 0x1D58, symBinAddr: 0x100002494, symSize: 0x70 }
  - { offsetInCU: 0xE5FF, offset: 0xE5FF, size: 0x8, addend: 0x0, symName: __ZNSt3__112basic_stringIcNS_11char_traitsIcEENS_9allocatorIcEEE15__set_long_sizeB7v160006Em, symObjAddr: 0x1DC8, symBinAddr: 0x100002504, symSize: 0x38 }
  - { offsetInCU: 0xE634, offset: 0xE634, size: 0x8, addend: 0x0, symName: __ZNSt3__122__compressed_pair_elemINS_12basic_stringIcNS_11char_traitsIcEENS_9allocatorIcEEE5__repELi0ELb0EE5__getB7v160006Ev, symObjAddr: 0x1E00, symBinAddr: 0x10000253C, symSize: 0x14 }
  - { offsetInCU: 0xE65A, offset: 0xE65A, size: 0x8, addend: 0x0, symName: __ZNSt3__112basic_stringIcNS_11char_traitsIcEENS_9allocatorIcEEE10__align_itB7v160006ILm16EEEmm, symObjAddr: 0x1E14, symBinAddr: 0x100002550, symSize: 0x1C }
  - { offsetInCU: 0xE688, offset: 0xE688, size: 0x8, addend: 0x0, symName: __ZNSt3__19allocatorIcE8allocateB7v160006Em, symObjAddr: 0x1E30, symBinAddr: 0x10000256C, symSize: 0x84 }
  - { offsetInCU: 0xE6C6, offset: 0xE6C6, size: 0x8, addend: 0x0, symName: __ZNSt3__116allocator_traitsINS_9allocatorIcEEE8max_sizeB7v160006IS2_vEEmRKS2_, symObjAddr: 0x1EB4, symBinAddr: 0x1000025F0, symSize: 0x24 }
  - { offsetInCU: 0xE6F4, offset: 0xE6F4, size: 0x8, addend: 0x0, symName: __ZNKSt3__19allocatorIcE8max_sizeB7v160006Ev, symObjAddr: 0x1F34, symBinAddr: 0x100002670, symSize: 0x14 }
  - { offsetInCU: 0xE71A, offset: 0xE71A, size: 0x8, addend: 0x0, symName: __ZNSt3__117__compressed_pairINS_12basic_stringIcNS_11char_traitsIcEENS_9allocatorIcEEE5__repES5_E6secondB7v160006Ev, symObjAddr: 0x1F6C, symBinAddr: 0x1000026A8, symSize: 0x24 }
  - { offsetInCU: 0xE740, offset: 0xE740, size: 0x8, addend: 0x0, symName: __ZNSt3__122__compressed_pair_elemINS_9allocatorIcEELi1ELb1EE5__getB7v160006Ev, symObjAddr: 0x1F90, symBinAddr: 0x1000026CC, symSize: 0x14 }
  - { offsetInCU: 0xE766, offset: 0xE766, size: 0x8, addend: 0x0, symName: __ZNSt3__13mapIibNS_4lessIiEENS_9allocatorINS_4pairIKibEEEEEC2B7v160006Ev, symObjAddr: 0x1FA4, symBinAddr: 0x1000026E0, symSize: 0x40 }
  - { offsetInCU: 0xE790, offset: 0xE790, size: 0x8, addend: 0x0, symName: __ZNSt3__119__map_value_compareIiNS_12__value_typeIibEENS_4lessIiEELb1EEC1B7v160006ES4_, symObjAddr: 0x1FE4, symBinAddr: 0x100002720, symSize: 0x2C }
  - { offsetInCU: 0xE7C9, offset: 0xE7C9, size: 0x8, addend: 0x0, symName: __ZNSt3__16__treeINS_12__value_typeIibEENS_19__map_value_compareIiS2_NS_4lessIiEELb1EEENS_9allocatorIS2_EEEC1ERKS6_, symObjAddr: 0x2010, symBinAddr: 0x10000274C, symSize: 0x34 }
  - { offsetInCU: 0xE804, offset: 0xE804, size: 0x8, addend: 0x0, symName: __ZNSt3__119__map_value_compareIiNS_12__value_typeIibEENS_4lessIiEELb1EEC2B7v160006ES4_, symObjAddr: 0x2044, symBinAddr: 0x100002780, symSize: 0x14 }
  - { offsetInCU: 0xE83D, offset: 0xE83D, size: 0x8, addend: 0x0, symName: __ZNSt3__16__treeINS_12__value_typeIibEENS_19__map_value_compareIiS2_NS_4lessIiEELb1EEENS_9allocatorIS2_EEEC2ERKS6_, symObjAddr: 0x2058, symBinAddr: 0x100002794, symSize: 0x70 }
  - { offsetInCU: 0xE878, offset: 0xE878, size: 0x8, addend: 0x0, symName: __ZNSt3__117__compressed_pairINS_15__tree_end_nodeIPNS_16__tree_node_baseIPvEEEENS_9allocatorINS_11__tree_nodeINS_12__value_typeIibEES3_EEEEEC1B7v160006ILb1EvEEv, symObjAddr: 0x20C8, symBinAddr: 0x100002804, symSize: 0x2C }
  - { offsetInCU: 0xE8B2, offset: 0xE8B2, size: 0x8, addend: 0x0, symName: __ZNSt3__117__compressed_pairImNS_19__map_value_compareIiNS_12__value_typeIibEENS_4lessIiEELb1EEEEC1B7v160006IiRKS6_EEOT_OT0_, symObjAddr: 0x20F4, symBinAddr: 0x100002830, symSize: 0x3C }
  - { offsetInCU: 0xE90A, offset: 0xE90A, size: 0x8, addend: 0x0, symName: __ZNSt3__16__treeINS_12__value_typeIibEENS_19__map_value_compareIiS2_NS_4lessIiEELb1EEENS_9allocatorIS2_EEE10__end_nodeB7v160006Ev, symObjAddr: 0x2130, symBinAddr: 0x10000286C, symSize: 0x2C }
  - { offsetInCU: 0xE930, offset: 0xE930, size: 0x8, addend: 0x0, symName: __ZNSt3__16__treeINS_12__value_typeIibEENS_19__map_value_compareIiS2_NS_4lessIiEELb1EEENS_9allocatorIS2_EEE12__begin_nodeB7v160006Ev, symObjAddr: 0x215C, symBinAddr: 0x100002898, symSize: 0x14 }
  - { offsetInCU: 0xE956, offset: 0xE956, size: 0x8, addend: 0x0, symName: __ZNSt3__117__compressed_pairINS_15__tree_end_nodeIPNS_16__tree_node_baseIPvEEEENS_9allocatorINS_11__tree_nodeINS_12__value_typeIibEES3_EEEEEC2B7v160006ILb1EvEEv, symObjAddr: 0x2170, symBinAddr: 0x1000028AC, symSize: 0x34 }
  - { offsetInCU: 0xE98B, offset: 0xE98B, size: 0x8, addend: 0x0, symName: __ZNSt3__122__compressed_pair_elemINS_15__tree_end_nodeIPNS_16__tree_node_baseIPvEEEELi0ELb0EEC2B7v160006ENS_16__value_init_tagE, symObjAddr: 0x21A4, symBinAddr: 0x1000028E0, symSize: 0x2C }
  - { offsetInCU: 0xE9C0, offset: 0xE9C0, size: 0x8, addend: 0x0, symName: __ZNSt3__122__compressed_pair_elemINS_9allocatorINS_11__tree_nodeINS_12__value_typeIibEEPvEEEELi1ELb1EEC2B7v160006ENS_16__value_init_tagE, symObjAddr: 0x21D0, symBinAddr: 0x10000290C, symSize: 0x2C }
  - { offsetInCU: 0xE9F5, offset: 0xE9F5, size: 0x8, addend: 0x0, symName: __ZNSt3__115__tree_end_nodeIPNS_16__tree_node_baseIPvEEEC1B7v160006Ev, symObjAddr: 0x21FC, symBinAddr: 0x100002938, symSize: 0x2C }
  - { offsetInCU: 0xEA1F, offset: 0xEA1F, size: 0x8, addend: 0x0, symName: __ZNSt3__115__tree_end_nodeIPNS_16__tree_node_baseIPvEEEC2B7v160006Ev, symObjAddr: 0x2228, symBinAddr: 0x100002964, symSize: 0x18 }
  - { offsetInCU: 0xEA49, offset: 0xEA49, size: 0x8, addend: 0x0, symName: __ZNSt3__19allocatorINS_11__tree_nodeINS_12__value_typeIibEEPvEEEC2B7v160006Ev, symObjAddr: 0x2240, symBinAddr: 0x10000297C, symSize: 0x2C }
  - { offsetInCU: 0xEA73, offset: 0xEA73, size: 0x8, addend: 0x0, symName: __ZNSt3__116__non_trivial_ifILb1ENS_9allocatorINS_11__tree_nodeINS_12__value_typeIibEEPvEEEEEC2B7v160006Ev, symObjAddr: 0x226C, symBinAddr: 0x1000029A8, symSize: 0x14 }
  - { offsetInCU: 0xEA9D, offset: 0xEA9D, size: 0x8, addend: 0x0, symName: __ZNSt3__117__compressed_pairImNS_19__map_value_compareIiNS_12__value_typeIibEENS_4lessIiEELb1EEEEC2B7v160006IiRKS6_EEOT_OT0_, symObjAddr: 0x2280, symBinAddr: 0x1000029BC, symSize: 0x44 }
  - { offsetInCU: 0xEAF5, offset: 0xEAF5, size: 0x8, addend: 0x0, symName: __ZNSt3__122__compressed_pair_elemImLi0ELb0EEC2B7v160006IivEEOT_, symObjAddr: 0x22C4, symBinAddr: 0x100002A00, symSize: 0x24 }
  - { offsetInCU: 0xEB37, offset: 0xEB37, size: 0x8, addend: 0x0, symName: __ZNSt3__122__compressed_pair_elemINS_19__map_value_compareIiNS_12__value_typeIibEENS_4lessIiEELb1EEELi1ELb1EEC2B7v160006IRKS6_vEEOT_, symObjAddr: 0x22E8, symBinAddr: 0x100002A24, symSize: 0x18 }
  - { offsetInCU: 0xEB79, offset: 0xEB79, size: 0x8, addend: 0x0, symName: __ZNSt3__114pointer_traitsIPNS_15__tree_end_nodeIPNS_16__tree_node_baseIPvEEEEE10pointer_toB7v160006ERS6_, symObjAddr: 0x2300, symBinAddr: 0x100002A3C, symSize: 0x14 }
  - { offsetInCU: 0xEB9C, offset: 0xEB9C, size: 0x8, addend: 0x0, symName: __ZNSt3__117__compressed_pairINS_15__tree_end_nodeIPNS_16__tree_node_baseIPvEEEENS_9allocatorINS_11__tree_nodeINS_12__value_typeIibEES3_EEEEE5firstB7v160006Ev, symObjAddr: 0x2314, symBinAddr: 0x100002A50, symSize: 0x24 }
  - { offsetInCU: 0xEBC2, offset: 0xEBC2, size: 0x8, addend: 0x0, symName: __ZNSt3__122__compressed_pair_elemINS_15__tree_end_nodeIPNS_16__tree_node_baseIPvEEEELi0ELb0EE5__getB7v160006Ev, symObjAddr: 0x2338, symBinAddr: 0x100002A74, symSize: 0x14 }
  - { offsetInCU: 0xEBE8, offset: 0xEBE8, size: 0x8, addend: 0x0, symName: __ZNSt3__13mapIibNS_4lessIiEENS_9allocatorINS_4pairIKibEEEEED2B7v160006Ev, symObjAddr: 0x234C, symBinAddr: 0x100002A88, symSize: 0x2C }
  - { offsetInCU: 0xEC12, offset: 0xEC12, size: 0x8, addend: 0x0, symName: __ZNSt3__16__treeINS_12__value_typeIibEENS_19__map_value_compareIiS2_NS_4lessIiEELb1EEENS_9allocatorIS2_EEED1Ev, symObjAddr: 0x2378, symBinAddr: 0x100002AB4, symSize: 0x2C }
  - { offsetInCU: 0xEC3E, offset: 0xEC3E, size: 0x8, addend: 0x0, symName: __ZNSt3__16__treeINS_12__value_typeIibEENS_19__map_value_compareIiS2_NS_4lessIiEELb1EEENS_9allocatorIS2_EEED2Ev, symObjAddr: 0x23A4, symBinAddr: 0x100002AE0, symSize: 0x38 }
  - { offsetInCU: 0xEC6A, offset: 0xEC6A, size: 0x8, addend: 0x0, symName: __ZNSt3__16__treeINS_12__value_typeIibEENS_19__map_value_compareIiS2_NS_4lessIiEELb1EEENS_9allocatorIS2_EEE7destroyEPNS_11__tree_nodeIS2_PvEE, symObjAddr: 0x23DC, symBinAddr: 0x100002B18, symSize: 0xC0 }
  - { offsetInCU: 0xECBE, offset: 0xECBE, size: 0x8, addend: 0x0, symName: __ZNKSt3__16__treeINS_12__value_typeIibEENS_19__map_value_compareIiS2_NS_4lessIiEELb1EEENS_9allocatorIS2_EEE6__rootB7v160006Ev, symObjAddr: 0x249C, symBinAddr: 0x100002BD8, symSize: 0x28 }
  - { offsetInCU: 0xECE4, offset: 0xECE4, size: 0x8, addend: 0x0, symName: __ZNSt3__16__treeINS_12__value_typeIibEENS_19__map_value_compareIiS2_NS_4lessIiEELb1EEENS_9allocatorIS2_EEE12__node_allocB7v160006Ev, symObjAddr: 0x24C4, symBinAddr: 0x100002C00, symSize: 0x28 }
  - { offsetInCU: 0xED0A, offset: 0xED0A, size: 0x8, addend: 0x0, symName: __ZNSt3__116allocator_traitsINS_9allocatorINS_11__tree_nodeINS_12__value_typeIibEEPvEEEEE7destroyB7v160006INS_4pairIKibEEvvEEvRS7_PT_, symObjAddr: 0x24EC, symBinAddr: 0x100002C28, symSize: 0x14 }
  - { offsetInCU: 0xED45, offset: 0xED45, size: 0x8, addend: 0x0, symName: __ZNSt3__122__tree_key_value_typesINS_12__value_typeIibEEE9__get_ptrB7v160006ERS2_, symObjAddr: 0x2500, symBinAddr: 0x100002C3C, symSize: 0x24 }
  - { offsetInCU: 0xED69, offset: 0xED69, size: 0x8, addend: 0x0, symName: __ZNSt3__116allocator_traitsINS_9allocatorINS_11__tree_nodeINS_12__value_typeIibEEPvEEEEE10deallocateB7v160006ERS7_PS6_m, symObjAddr: 0x2524, symBinAddr: 0x100002C60, symSize: 0x34 }
  - { offsetInCU: 0xEDAB, offset: 0xEDAB, size: 0x8, addend: 0x0, symName: __ZNSt3__117__compressed_pairINS_15__tree_end_nodeIPNS_16__tree_node_baseIPvEEEENS_9allocatorINS_11__tree_nodeINS_12__value_typeIibEES3_EEEEE6secondB7v160006Ev, symObjAddr: 0x2558, symBinAddr: 0x100002C94, symSize: 0x24 }
  - { offsetInCU: 0xEDD1, offset: 0xEDD1, size: 0x8, addend: 0x0, symName: __ZNSt3__122__compressed_pair_elemINS_9allocatorINS_11__tree_nodeINS_12__value_typeIibEEPvEEEELi1ELb1EE5__getB7v160006Ev, symObjAddr: 0x257C, symBinAddr: 0x100002CB8, symSize: 0x14 }
  - { offsetInCU: 0xEDF7, offset: 0xEDF7, size: 0x8, addend: 0x0, symName: __ZNSt3__112__value_typeIibE11__get_valueB7v160006Ev, symObjAddr: 0x2590, symBinAddr: 0x100002CCC, symSize: 0x14 }
  - { offsetInCU: 0xEE1D, offset: 0xEE1D, size: 0x8, addend: 0x0, symName: __ZNSt3__19allocatorINS_11__tree_nodeINS_12__value_typeIibEEPvEEE10deallocateB7v160006EPS5_m, symObjAddr: 0x25A4, symBinAddr: 0x100002CE0, symSize: 0x74 }
  - { offsetInCU: 0xEE5F, offset: 0xEE5F, size: 0x8, addend: 0x0, symName: __ZNKSt3__16__treeINS_12__value_typeIibEENS_19__map_value_compareIiS2_NS_4lessIiEELb1EEENS_9allocatorIS2_EEE10__end_nodeB7v160006Ev, symObjAddr: 0x2694, symBinAddr: 0x100002DD0, symSize: 0x2C }
  - { offsetInCU: 0xEE85, offset: 0xEE85, size: 0x8, addend: 0x0, symName: __ZNKSt3__117__compressed_pairINS_15__tree_end_nodeIPNS_16__tree_node_baseIPvEEEENS_9allocatorINS_11__tree_nodeINS_12__value_typeIibEES3_EEEEE5firstB7v160006Ev, symObjAddr: 0x26C0, symBinAddr: 0x100002DFC, symSize: 0x24 }
  - { offsetInCU: 0xEEAB, offset: 0xEEAB, size: 0x8, addend: 0x0, symName: __ZNKSt3__122__compressed_pair_elemINS_15__tree_end_nodeIPNS_16__tree_node_baseIPvEEEELi0ELb0EE5__getB7v160006Ev, symObjAddr: 0x26E4, symBinAddr: 0x100002E20, symSize: 0x14 }
  - { offsetInCU: 0xEED1, offset: 0xEED1, size: 0x8, addend: 0x0, symName: __ZNSt3__13setIP4NodeNS_4lessIS2_EENS_9allocatorIS2_EEEC2B7v160006Ev, symObjAddr: 0x26F8, symBinAddr: 0x100002E34, symSize: 0x30 }
  - { offsetInCU: 0xEEFB, offset: 0xEEFB, size: 0x8, addend: 0x0, symName: __ZNSt3__16__treeIP4NodeNS_4lessIS2_EENS_9allocatorIS2_EEEC1ERKS4_, symObjAddr: 0x2728, symBinAddr: 0x100002E64, symSize: 0x34 }
  - { offsetInCU: 0xEF36, offset: 0xEF36, size: 0x8, addend: 0x0, symName: __ZNSt3__16__treeIP4NodeNS_4lessIS2_EENS_9allocatorIS2_EEEC2ERKS4_, symObjAddr: 0x275C, symBinAddr: 0x100002E98, symSize: 0x70 }
  - { offsetInCU: 0xEF71, offset: 0xEF71, size: 0x8, addend: 0x0, symName: __ZNSt3__117__compressed_pairINS_15__tree_end_nodeIPNS_16__tree_node_baseIPvEEEENS_9allocatorINS_11__tree_nodeIP4NodeS3_EEEEEC1B7v160006ILb1EvEEv, symObjAddr: 0x27CC, symBinAddr: 0x100002F08, symSize: 0x2C }
  - { offsetInCU: 0xEFA6, offset: 0xEFA6, size: 0x8, addend: 0x0, symName: __ZNSt3__117__compressed_pairImNS_4lessIP4NodeEEEC1B7v160006IiRKS4_EEOT_OT0_, symObjAddr: 0x27F8, symBinAddr: 0x100002F34, symSize: 0x3C }
  - { offsetInCU: 0xEFFE, offset: 0xEFFE, size: 0x8, addend: 0x0, symName: __ZNSt3__16__treeIP4NodeNS_4lessIS2_EENS_9allocatorIS2_EEE10__end_nodeB7v160006Ev, symObjAddr: 0x2834, symBinAddr: 0x100002F70, symSize: 0x2C }
  - { offsetInCU: 0xF024, offset: 0xF024, size: 0x8, addend: 0x0, symName: __ZNSt3__16__treeIP4NodeNS_4lessIS2_EENS_9allocatorIS2_EEE12__begin_nodeB7v160006Ev, symObjAddr: 0x2860, symBinAddr: 0x100002F9C, symSize: 0x14 }
  - { offsetInCU: 0xF04A, offset: 0xF04A, size: 0x8, addend: 0x0, symName: __ZNSt3__117__compressed_pairINS_15__tree_end_nodeIPNS_16__tree_node_baseIPvEEEENS_9allocatorINS_11__tree_nodeIP4NodeS3_EEEEEC2B7v160006ILb1EvEEv, symObjAddr: 0x2874, symBinAddr: 0x100002FB0, symSize: 0x34 }
  - { offsetInCU: 0xF07F, offset: 0xF07F, size: 0x8, addend: 0x0, symName: __ZNSt3__122__compressed_pair_elemINS_9allocatorINS_11__tree_nodeIP4NodePvEEEELi1ELb1EEC2B7v160006ENS_16__value_init_tagE, symObjAddr: 0x28A8, symBinAddr: 0x100002FE4, symSize: 0x2C }
  - { offsetInCU: 0xF0B4, offset: 0xF0B4, size: 0x8, addend: 0x0, symName: __ZNSt3__19allocatorINS_11__tree_nodeIP4NodePvEEEC2B7v160006Ev, symObjAddr: 0x28D4, symBinAddr: 0x100003010, symSize: 0x2C }
  - { offsetInCU: 0xF0DE, offset: 0xF0DE, size: 0x8, addend: 0x0, symName: __ZNSt3__116__non_trivial_ifILb1ENS_9allocatorINS_11__tree_nodeIP4NodePvEEEEEC2B7v160006Ev, symObjAddr: 0x2900, symBinAddr: 0x10000303C, symSize: 0x14 }
  - { offsetInCU: 0xF108, offset: 0xF108, size: 0x8, addend: 0x0, symName: __ZNSt3__117__compressed_pairImNS_4lessIP4NodeEEEC2B7v160006IiRKS4_EEOT_OT0_, symObjAddr: 0x2914, symBinAddr: 0x100003050, symSize: 0x44 }
  - { offsetInCU: 0xF160, offset: 0xF160, size: 0x8, addend: 0x0, symName: __ZNSt3__122__compressed_pair_elemINS_4lessIP4NodeEELi1ELb1EEC2B7v160006IRKS4_vEEOT_, symObjAddr: 0x2958, symBinAddr: 0x100003094, symSize: 0x18 }
  - { offsetInCU: 0xF1A2, offset: 0xF1A2, size: 0x8, addend: 0x0, symName: __ZNSt3__117__compressed_pairINS_15__tree_end_nodeIPNS_16__tree_node_baseIPvEEEENS_9allocatorINS_11__tree_nodeIP4NodeS3_EEEEE5firstB7v160006Ev, symObjAddr: 0x2970, symBinAddr: 0x1000030AC, symSize: 0x24 }
  - { offsetInCU: 0xF1C8, offset: 0xF1C8, size: 0x8, addend: 0x0, symName: __ZNSt3__13setIP4NodeNS_4lessIS2_EENS_9allocatorIS2_EEED2B7v160006Ev, symObjAddr: 0x2994, symBinAddr: 0x1000030D0, symSize: 0x2C }
  - { offsetInCU: 0xF1F2, offset: 0xF1F2, size: 0x8, addend: 0x0, symName: __ZNSt3__16__treeIP4NodeNS_4lessIS2_EENS_9allocatorIS2_EEED1Ev, symObjAddr: 0x29C0, symBinAddr: 0x1000030FC, symSize: 0x2C }
  - { offsetInCU: 0xF21E, offset: 0xF21E, size: 0x8, addend: 0x0, symName: __ZNSt3__16__treeIP4NodeNS_4lessIS2_EENS_9allocatorIS2_EEED2Ev, symObjAddr: 0x29EC, symBinAddr: 0x100003128, symSize: 0x38 }
  - { offsetInCU: 0xF24A, offset: 0xF24A, size: 0x8, addend: 0x0, symName: __ZNSt3__16__treeIP4NodeNS_4lessIS2_EENS_9allocatorIS2_EEE7destroyEPNS_11__tree_nodeIS2_PvEE, symObjAddr: 0x2A24, symBinAddr: 0x100003160, symSize: 0xC0 }
  - { offsetInCU: 0xF29E, offset: 0xF29E, size: 0x8, addend: 0x0, symName: __ZNKSt3__16__treeIP4NodeNS_4lessIS2_EENS_9allocatorIS2_EEE6__rootB7v160006Ev, symObjAddr: 0x2AE4, symBinAddr: 0x100003220, symSize: 0x28 }
  - { offsetInCU: 0xF2C4, offset: 0xF2C4, size: 0x8, addend: 0x0, symName: __ZNSt3__16__treeIP4NodeNS_4lessIS2_EENS_9allocatorIS2_EEE12__node_allocB7v160006Ev, symObjAddr: 0x2B0C, symBinAddr: 0x100003248, symSize: 0x28 }
  - { offsetInCU: 0xF2EA, offset: 0xF2EA, size: 0x8, addend: 0x0, symName: __ZNSt3__116allocator_traitsINS_9allocatorINS_11__tree_nodeIP4NodePvEEEEE7destroyB7v160006IS4_vvEEvRS7_PT_, symObjAddr: 0x2B34, symBinAddr: 0x100003270, symSize: 0x14 }
  - { offsetInCU: 0xF325, offset: 0xF325, size: 0x8, addend: 0x0, symName: __ZNSt3__122__tree_key_value_typesIP4NodeE9__get_ptrB7v160006ERS2_, symObjAddr: 0x2B48, symBinAddr: 0x100003284, symSize: 0x14 }
  - { offsetInCU: 0xF349, offset: 0xF349, size: 0x8, addend: 0x0, symName: __ZNSt3__116allocator_traitsINS_9allocatorINS_11__tree_nodeIP4NodePvEEEEE10deallocateB7v160006ERS7_PS6_m, symObjAddr: 0x2B5C, symBinAddr: 0x100003298, symSize: 0x34 }
  - { offsetInCU: 0xF38B, offset: 0xF38B, size: 0x8, addend: 0x0, symName: __ZNSt3__117__compressed_pairINS_15__tree_end_nodeIPNS_16__tree_node_baseIPvEEEENS_9allocatorINS_11__tree_nodeIP4NodeS3_EEEEE6secondB7v160006Ev, symObjAddr: 0x2B90, symBinAddr: 0x1000032CC, symSize: 0x24 }
  - { offsetInCU: 0xF3B1, offset: 0xF3B1, size: 0x8, addend: 0x0, symName: __ZNSt3__122__compressed_pair_elemINS_9allocatorINS_11__tree_nodeIP4NodePvEEEELi1ELb1EE5__getB7v160006Ev, symObjAddr: 0x2BB4, symBinAddr: 0x1000032F0, symSize: 0x14 }
  - { offsetInCU: 0xF3D7, offset: 0xF3D7, size: 0x8, addend: 0x0, symName: __ZNSt3__19allocatorINS_11__tree_nodeIP4NodePvEEE10deallocateB7v160006EPS5_m, symObjAddr: 0x2BC8, symBinAddr: 0x100003304, symSize: 0x74 }
  - { offsetInCU: 0xF419, offset: 0xF419, size: 0x8, addend: 0x0, symName: __ZNKSt3__16__treeIP4NodeNS_4lessIS2_EENS_9allocatorIS2_EEE10__end_nodeB7v160006Ev, symObjAddr: 0x2C3C, symBinAddr: 0x100003378, symSize: 0x2C }
  - { offsetInCU: 0xF43F, offset: 0xF43F, size: 0x8, addend: 0x0, symName: __ZNKSt3__117__compressed_pairINS_15__tree_end_nodeIPNS_16__tree_node_baseIPvEEEENS_9allocatorINS_11__tree_nodeIP4NodeS3_EEEEE5firstB7v160006Ev, symObjAddr: 0x2C68, symBinAddr: 0x1000033A4, symSize: 0x24 }
  - { offsetInCU: 0xF4F2, offset: 0xF4F2, size: 0x8, addend: 0x0, symName: __ZNKSt3__113basic_istreamIcNS_11char_traitsIcEEE6sentrycvbB7v160006Ev, symObjAddr: 0x2C8C, symBinAddr: 0x1000033C8, symSize: 0x1C }
  - { offsetInCU: 0xF518, offset: 0xF518, size: 0x8, addend: 0x0, symName: __ZNSt3__112basic_stringIcNS_11char_traitsIcEENS_9allocatorIcEEE5clearB7v160006Ev, symObjAddr: 0x2CA8, symBinAddr: 0x1000033E4, symSize: 0x9C }
  - { offsetInCU: 0xF540, offset: 0xF540, size: 0x8, addend: 0x0, symName: __ZNKSt3__18ios_base5widthB7v160006Ev, symObjAddr: 0x2D44, symBinAddr: 0x100003480, symSize: 0x18 }
  - { offsetInCU: 0xF568, offset: 0xF568, size: 0x8, addend: 0x0, symName: __ZNKSt3__112basic_stringIcNS_11char_traitsIcEENS_9allocatorIcEEE8max_sizeB7v160006Ev, symObjAddr: 0x2D5C, symBinAddr: 0x100003498, symSize: 0xAC }
  - { offsetInCU: 0xF5BA, offset: 0xF5BA, size: 0x8, addend: 0x0, symName: __ZNSt3__114numeric_limitsIlE3maxB7v160006Ev, symObjAddr: 0x2E08, symBinAddr: 0x100003544, symSize: 0x14 }
  - { offsetInCU: 0xF5CE, offset: 0xF5CE, size: 0x8, addend: 0x0, symName: __ZNKSt3__19basic_iosIcNS_11char_traitsIcEEE5rdbufB7v160006Ev, symObjAddr: 0x2E48, symBinAddr: 0x100003584, symSize: 0x24 }
  - { offsetInCU: 0xF5F6, offset: 0xF5F6, size: 0x8, addend: 0x0, symName: __ZNSt3__115basic_streambufIcNS_11char_traitsIcEEE5sgetcB7v160006Ev, symObjAddr: 0x2E6C, symBinAddr: 0x1000035A8, symSize: 0x70 }
  - { offsetInCU: 0xF61C, offset: 0xF61C, size: 0x8, addend: 0x0, symName: __ZNSt3__111char_traitsIcE11eq_int_typeEii, symObjAddr: 0x2EDC, symBinAddr: 0x100003618, symSize: 0x28 }
  - { offsetInCU: 0xF64D, offset: 0xF64D, size: 0x8, addend: 0x0, symName: __ZNSt3__111char_traitsIcE3eofEv, symObjAddr: 0x2F04, symBinAddr: 0x100003640, symSize: 0x8 }
  - { offsetInCU: 0xF661, offset: 0xF661, size: 0x8, addend: 0x0, symName: __ZNSt3__111char_traitsIcE12to_char_typeEi, symObjAddr: 0x2F0C, symBinAddr: 0x100003648, symSize: 0x18 }
  - { offsetInCU: 0xF6B1, offset: 0xF6B1, size: 0x8, addend: 0x0, symName: __ZNKSt3__15ctypeIcE2isB7v160006Ejc, symObjAddr: 0x2F24, symBinAddr: 0x100003660, symSize: 0x7C }
  - { offsetInCU: 0xF6F5, offset: 0xF6F5, size: 0x8, addend: 0x0, symName: __ZNSt3__115basic_streambufIcNS_11char_traitsIcEEE6sbumpcB7v160006Ev, symObjAddr: 0x2FA0, symBinAddr: 0x1000036DC, symSize: 0x78 }
  - { offsetInCU: 0xF71B, offset: 0xF71B, size: 0x8, addend: 0x0, symName: __ZNSt3__18ios_base5widthB7v160006El, symObjAddr: 0x3018, symBinAddr: 0x100003754, symSize: 0x2C }
  - { offsetInCU: 0xF761, offset: 0xF761, size: 0x8, addend: 0x0, symName: __ZNSt3__18ios_base18__setstate_nothrowB7v160006Ej, symObjAddr: 0x3044, symBinAddr: 0x100003780, symSize: 0x64 }
  - { offsetInCU: 0xF796, offset: 0xF796, size: 0x8, addend: 0x0, symName: __ZNKSt3__19basic_iosIcNS_11char_traitsIcEEE10exceptionsB7v160006Ev, symObjAddr: 0x30A8, symBinAddr: 0x1000037E4, symSize: 0x24 }
  - { offsetInCU: 0xF7BC, offset: 0xF7BC, size: 0x8, addend: 0x0, symName: __ZNSt3__19basic_iosIcNS_11char_traitsIcEEE8setstateB7v160006Ej, symObjAddr: 0x30CC, symBinAddr: 0x100003808, symSize: 0x2C }
  - { offsetInCU: 0xF7F1, offset: 0xF7F1, size: 0x8, addend: 0x0, symName: __ZNKSt3__112basic_stringIcNS_11char_traitsIcEENS_9allocatorIcEEE9__is_longB7v160006Ev, symObjAddr: 0x3108, symBinAddr: 0x100003844, symSize: 0x74 }
  - { offsetInCU: 0xF817, offset: 0xF817, size: 0x8, addend: 0x0, symName: __ZNSt3__111char_traitsIcE6assignERcRKc, symObjAddr: 0x317C, symBinAddr: 0x1000038B8, symSize: 0x24 }
  - { offsetInCU: 0xF848, offset: 0xF848, size: 0x8, addend: 0x0, symName: __ZNSt3__112basic_stringIcNS_11char_traitsIcEENS_9allocatorIcEEE18__get_long_pointerB7v160006Ev, symObjAddr: 0x31A0, symBinAddr: 0x1000038DC, symSize: 0x28 }
  - { offsetInCU: 0xF86E, offset: 0xF86E, size: 0x8, addend: 0x0, symName: __ZNSt3__112basic_stringIcNS_11char_traitsIcEENS_9allocatorIcEEE19__get_short_pointerB7v160006Ev, symObjAddr: 0x31C8, symBinAddr: 0x100003904, symSize: 0x28 }
  - { offsetInCU: 0xF894, offset: 0xF894, size: 0x8, addend: 0x0, symName: __ZNSt3__112basic_stringIcNS_11char_traitsIcEENS_9allocatorIcEEE16__set_short_sizeB7v160006Em, symObjAddr: 0x31F0, symBinAddr: 0x10000392C, symSize: 0x78 }
  - { offsetInCU: 0xF8C9, offset: 0xF8C9, size: 0x8, addend: 0x0, symName: __ZNKSt3__117__compressed_pairINS_12basic_stringIcNS_11char_traitsIcEENS_9allocatorIcEEE5__repES5_E5firstB7v160006Ev, symObjAddr: 0x3268, symBinAddr: 0x1000039A4, symSize: 0x24 }
  - { offsetInCU: 0xF8EF, offset: 0xF8EF, size: 0x8, addend: 0x0, symName: __ZNKSt3__122__compressed_pair_elemINS_12basic_stringIcNS_11char_traitsIcEENS_9allocatorIcEEE5__repELi0ELb0EE5__getB7v160006Ev, symObjAddr: 0x328C, symBinAddr: 0x1000039C8, symSize: 0x14 }
  - { offsetInCU: 0xF915, offset: 0xF915, size: 0x8, addend: 0x0, symName: __ZNSt3__114pointer_traitsIPcE10pointer_toB7v160006ERc, symObjAddr: 0x32A0, symBinAddr: 0x1000039DC, symSize: 0x14 }
  - { offsetInCU: 0xF938, offset: 0xF938, size: 0x8, addend: 0x0, symName: __ZNKSt3__112basic_stringIcNS_11char_traitsIcEENS_9allocatorIcEEE7__allocB7v160006Ev, symObjAddr: 0x32B4, symBinAddr: 0x1000039F0, symSize: 0x24 }
  - { offsetInCU: 0xF95E, offset: 0xF95E, size: 0x8, addend: 0x0, symName: __ZNSt3__114numeric_limitsImE3maxB7v160006Ev, symObjAddr: 0x32D8, symBinAddr: 0x100003A14, symSize: 0x14 }
  - { offsetInCU: 0xF972, offset: 0xF972, size: 0x8, addend: 0x0, symName: __ZNKSt3__117__compressed_pairINS_12basic_stringIcNS_11char_traitsIcEENS_9allocatorIcEEE5__repES5_E6secondB7v160006Ev, symObjAddr: 0x32EC, symBinAddr: 0x100003A28, symSize: 0x24 }
  - { offsetInCU: 0xF998, offset: 0xF998, size: 0x8, addend: 0x0, symName: __ZNKSt3__122__compressed_pair_elemINS_9allocatorIcEELi1ELb1EE5__getB7v160006Ev, symObjAddr: 0x3310, symBinAddr: 0x100003A4C, symSize: 0x14 }
  - { offsetInCU: 0xF9BE, offset: 0xF9BE, size: 0x8, addend: 0x0, symName: __ZNSt3__123__libcpp_numeric_limitsImLb1EE3maxB7v160006Ev, symObjAddr: 0x3324, symBinAddr: 0x100003A60, symSize: 0x8 }
  - { offsetInCU: 0xF9D2, offset: 0xF9D2, size: 0x8, addend: 0x0, symName: __ZNSt3__123__libcpp_numeric_limitsIlLb1EE3maxB7v160006Ev, symObjAddr: 0x332C, symBinAddr: 0x100003A68, symSize: 0x8 }
  - { offsetInCU: 0xF9E6, offset: 0xF9E6, size: 0x8, addend: 0x0, symName: __ZNKSt3__18ios_base5rdbufB7v160006Ev, symObjAddr: 0x3334, symBinAddr: 0x100003A70, symSize: 0x18 }
  - { offsetInCU: 0xFA0C, offset: 0xFA0C, size: 0x8, addend: 0x0, symName: __ZNSt3__111char_traitsIcE11to_int_typeEc, symObjAddr: 0x334C, symBinAddr: 0x100003A88, symSize: 0x14 }
  - { offsetInCU: 0xFA2E, offset: 0xFA2E, size: 0x8, addend: 0x0, symName: __Z7isasciii, symObjAddr: 0x3360, symBinAddr: 0x100003A9C, symSize: 0x24 }
  - { offsetInCU: 0xFA5B, offset: 0xFA5B, size: 0x8, addend: 0x0, symName: __ZNKSt3__18ios_base10exceptionsB7v160006Ev, symObjAddr: 0x3384, symBinAddr: 0x100003AC0, symSize: 0x18 }
  - { offsetInCU: 0xFA83, offset: 0xFA83, size: 0x8, addend: 0x0, symName: __ZNSt3__18ios_base8setstateB7v160006Ej, symObjAddr: 0x339C, symBinAddr: 0x100003AD8, symSize: 0x34 }
  - { offsetInCU: 0xFABA, offset: 0xFABA, size: 0x8, addend: 0x0, symName: __ZNSt3__112basic_stringIcNS_11char_traitsIcEENS_9allocatorIcEEE13__get_pointerB7v160006Ev, symObjAddr: 0x33D0, symBinAddr: 0x100003B0C, symSize: 0x54 }
  - { offsetInCU: 0xFAE0, offset: 0xFAE0, size: 0x8, addend: 0x0, symName: __ZNSt3__16__treeIP4NodeNS_4lessIS2_EENS_9allocatorIS2_EEE15__insert_uniqueB7v160006ERKS2_, symObjAddr: 0x3424, symBinAddr: 0x100003B60, symSize: 0x50 }
  - { offsetInCU: 0xFB15, offset: 0xFB15, size: 0x8, addend: 0x0, symName: __ZNSt3__14pairINS_21__tree_const_iteratorIP4NodePNS_11__tree_nodeIS3_PvEElEEbEC1B7v160006INS_15__tree_iteratorIS3_S7_lEEbEERKNS0_IT_T0_EE, symObjAddr: 0x3474, symBinAddr: 0x100003BB0, symSize: 0x34 }
  - { offsetInCU: 0xFB5F, offset: 0xFB5F, size: 0x8, addend: 0x0, symName: __ZNSt3__16__treeIP4NodeNS_4lessIS2_EENS_9allocatorIS2_EEE25__emplace_unique_key_argsIS2_JRKS2_EEENS_4pairINS_15__tree_iteratorIS2_PNS_11__tree_nodeIS2_PvEElEEbEERKT_DpOT0_, symObjAddr: 0x34A8, symBinAddr: 0x100003BE4, symSize: 0xF0 }
  - { offsetInCU: 0xFC0B, offset: 0xFC0B, size: 0x8, addend: 0x0, symName: __ZNSt3__122__tree_key_value_typesIP4NodeE9__get_keyB7v160006ERKS2_, symObjAddr: 0x3598, symBinAddr: 0x100003CD4, symSize: 0x14 }
  - { offsetInCU: 0xFC2F, offset: 0xFC2F, size: 0x8, addend: 0x0, symName: __ZNSt3__16__treeIP4NodeNS_4lessIS2_EENS_9allocatorIS2_EEE12__find_equalIS2_EERPNS_16__tree_node_baseIPvEERPNS_15__tree_end_nodeISC_EERKT_, symObjAddr: 0x35AC, symBinAddr: 0x100003CE8, symSize: 0x184 }
  - { offsetInCU: 0xFC9C, offset: 0xFC9C, size: 0x8, addend: 0x0, symName: __ZNSt3__16__treeIP4NodeNS_4lessIS2_EENS_9allocatorIS2_EEE16__construct_nodeIJRKS2_EEENS_10unique_ptrINS_11__tree_nodeIS2_PvEENS_22__tree_node_destructorINS5_ISE_EEEEEEDpOT_, symObjAddr: 0x3730, symBinAddr: 0x100003E6C, symSize: 0x110 }
  - { offsetInCU: 0xFCFD, offset: 0xFCFD, size: 0x8, addend: 0x0, symName: __ZNSt3__16__treeIP4NodeNS_4lessIS2_EENS_9allocatorIS2_EEE16__insert_node_atEPNS_15__tree_end_nodeIPNS_16__tree_node_baseIPvEEEERSC_SC_, symObjAddr: 0x3840, symBinAddr: 0x100003F7C, symSize: 0xCC }
  - { offsetInCU: 0xFD52, offset: 0xFD52, size: 0x8, addend: 0x0, symName: __ZNKSt3__110unique_ptrINS_11__tree_nodeIP4NodePvEENS_22__tree_node_destructorINS_9allocatorIS5_EEEEE3getB7v160006Ev, symObjAddr: 0x390C, symBinAddr: 0x100004048, symSize: 0x28 }
  - { offsetInCU: 0xFD78, offset: 0xFD78, size: 0x8, addend: 0x0, symName: __ZNSt3__110unique_ptrINS_11__tree_nodeIP4NodePvEENS_22__tree_node_destructorINS_9allocatorIS5_EEEEE7releaseB7v160006Ev, symObjAddr: 0x3934, symBinAddr: 0x100004070, symSize: 0x44 }
  - { offsetInCU: 0xFDAD, offset: 0xFDAD, size: 0x8, addend: 0x0, symName: __ZNSt3__110unique_ptrINS_11__tree_nodeIP4NodePvEENS_22__tree_node_destructorINS_9allocatorIS5_EEEEED1B7v160006Ev, symObjAddr: 0x3978, symBinAddr: 0x1000040B4, symSize: 0x2C }
  - { offsetInCU: 0xFDD7, offset: 0xFDD7, size: 0x8, addend: 0x0, symName: __ZNSt3__115__tree_iteratorIP4NodePNS_11__tree_nodeIS2_PvEElEC1B7v160006ES6_, symObjAddr: 0x39A4, symBinAddr: 0x1000040E0, symSize: 0x34 }
  - { offsetInCU: 0xFE10, offset: 0xFE10, size: 0x8, addend: 0x0, symName: __ZNSt3__14pairINS_15__tree_iteratorIP4NodePNS_11__tree_nodeIS3_PvEElEEbEC1B7v160006ERKS8_RKb, symObjAddr: 0x39D8, symBinAddr: 0x100004114, symSize: 0x3C }
  - { offsetInCU: 0xFE56, offset: 0xFE56, size: 0x8, addend: 0x0, symName: __ZNKSt3__16__treeIP4NodeNS_4lessIS2_EENS_9allocatorIS2_EEE10__root_ptrEv, symObjAddr: 0x3A14, symBinAddr: 0x100004150, symSize: 0x24 }
  - { offsetInCU: 0xFE7C, offset: 0xFE7C, size: 0x8, addend: 0x0, symName: __ZNSt3__16__treeIP4NodeNS_4lessIS2_EENS_9allocatorIS2_EEE10value_compB7v160006Ev, symObjAddr: 0x3A38, symBinAddr: 0x100004174, symSize: 0x28 }
  - { offsetInCU: 0xFEA2, offset: 0xFEA2, size: 0x8, addend: 0x0, symName: __ZNKSt3__14lessIP4NodeEclB7v160006ERKS2_S5_, symObjAddr: 0x3A60, symBinAddr: 0x10000419C, symSize: 0x34 }
  - { offsetInCU: 0xFEE6, offset: 0xFEE6, size: 0x8, addend: 0x0, symName: __ZNSt3__117__compressed_pairImNS_4lessIP4NodeEEE6secondB7v160006Ev, symObjAddr: 0x3A94, symBinAddr: 0x1000041D0, symSize: 0x24 }
  - { offsetInCU: 0xFF0C, offset: 0xFF0C, size: 0x8, addend: 0x0, symName: __ZNSt3__122__compressed_pair_elemINS_4lessIP4NodeEELi1ELb1EE5__getB7v160006Ev, symObjAddr: 0x3AB8, symBinAddr: 0x1000041F4, symSize: 0x14 }
  - { offsetInCU: 0xFF32, offset: 0xFF32, size: 0x8, addend: 0x0, symName: __ZNSt3__116allocator_traitsINS_9allocatorINS_11__tree_nodeIP4NodePvEEEEE8allocateB7v160006ERS7_m, symObjAddr: 0x3ACC, symBinAddr: 0x100004208, symSize: 0x2C }
  - { offsetInCU: 0xFF65, offset: 0xFF65, size: 0x8, addend: 0x0, symName: __ZNSt3__122__tree_node_destructorINS_9allocatorINS_11__tree_nodeIP4NodePvEEEEEC1B7v160006ERS7_b, symObjAddr: 0x3AF8, symBinAddr: 0x100004234, symSize: 0x48 }
  - { offsetInCU: 0xFFB2, offset: 0xFFB2, size: 0x8, addend: 0x0, symName: __ZNSt3__110unique_ptrINS_11__tree_nodeIP4NodePvEENS_22__tree_node_destructorINS_9allocatorIS5_EEEEEC1B7v160006ILb1EvEEPS5_NS_16__dependent_typeINS_27__unique_ptr_deleter_sfinaeIS9_EEXT_EE20__good_rval_ref_typeE, symObjAddr: 0x3B40, symBinAddr: 0x10000427C, symSize: 0x3C }
  - { offsetInCU: 0x10003, offset: 0x10003, size: 0x8, addend: 0x0, symName: __ZNSt3__116allocator_traitsINS_9allocatorINS_11__tree_nodeIP4NodePvEEEEE9constructB7v160006IS4_JRKS4_EvEEvRS7_PT_DpOT0_, symObjAddr: 0x3B7C, symBinAddr: 0x1000042B8, symSize: 0x34 }
  - { offsetInCU: 0x1005A, offset: 0x1005A, size: 0x8, addend: 0x0, symName: __ZNKSt3__110unique_ptrINS_11__tree_nodeIP4NodePvEENS_22__tree_node_destructorINS_9allocatorIS5_EEEEEptB7v160006Ev, symObjAddr: 0x3BB0, symBinAddr: 0x1000042EC, symSize: 0x28 }
  - { offsetInCU: 0x10080, offset: 0x10080, size: 0x8, addend: 0x0, symName: __ZNSt3__110unique_ptrINS_11__tree_nodeIP4NodePvEENS_22__tree_node_destructorINS_9allocatorIS5_EEEEE11get_deleterB7v160006Ev, symObjAddr: 0x3BD8, symBinAddr: 0x100004314, symSize: 0x24 }
  - { offsetInCU: 0x100A6, offset: 0x100A6, size: 0x8, addend: 0x0, symName: __ZNSt3__19allocatorINS_11__tree_nodeIP4NodePvEEE8allocateB7v160006Em, symObjAddr: 0x3BFC, symBinAddr: 0x100004338, symSize: 0x8C }
  - { offsetInCU: 0x100E4, offset: 0x100E4, size: 0x8, addend: 0x0, symName: __ZNSt3__116allocator_traitsINS_9allocatorINS_11__tree_nodeIP4NodePvEEEEE8max_sizeB7v160006IS7_vEEmRKS7_, symObjAddr: 0x3C88, symBinAddr: 0x1000043C4, symSize: 0x24 }
  - { offsetInCU: 0x10112, offset: 0x10112, size: 0x8, addend: 0x0, symName: __ZNKSt3__19allocatorINS_11__tree_nodeIP4NodePvEEE8max_sizeB7v160006Ev, symObjAddr: 0x3CAC, symBinAddr: 0x1000043E8, symSize: 0x18 }
  - { offsetInCU: 0x10138, offset: 0x10138, size: 0x8, addend: 0x0, symName: __ZNSt3__122__tree_node_destructorINS_9allocatorINS_11__tree_nodeIP4NodePvEEEEEC2B7v160006ERS7_b, symObjAddr: 0x3CC4, symBinAddr: 0x100004400, symSize: 0x38 }
  - { offsetInCU: 0x10180, offset: 0x10180, size: 0x8, addend: 0x0, symName: __ZNSt3__110unique_ptrINS_11__tree_nodeIP4NodePvEENS_22__tree_node_destructorINS_9allocatorIS5_EEEEEC2B7v160006ILb1EvEEPS5_NS_16__dependent_typeINS_27__unique_ptr_deleter_sfinaeIS9_EEXT_EE20__good_rval_ref_typeE, symObjAddr: 0x3CFC, symBinAddr: 0x100004438, symSize: 0x5C }
  - { offsetInCU: 0x101D1, offset: 0x101D1, size: 0x8, addend: 0x0, symName: __ZNSt3__117__compressed_pairIPNS_11__tree_nodeIP4NodePvEENS_22__tree_node_destructorINS_9allocatorIS5_EEEEEC1B7v160006IRS6_SA_EEOT_OT0_, symObjAddr: 0x3D58, symBinAddr: 0x100004494, symSize: 0x3C }
  - { offsetInCU: 0x10229, offset: 0x10229, size: 0x8, addend: 0x0, symName: __ZNSt3__117__compressed_pairIPNS_11__tree_nodeIP4NodePvEENS_22__tree_node_destructorINS_9allocatorIS5_EEEEEC2B7v160006IRS6_SA_EEOT_OT0_, symObjAddr: 0x3D94, symBinAddr: 0x1000044D0, symSize: 0x48 }
  - { offsetInCU: 0x10281, offset: 0x10281, size: 0x8, addend: 0x0, symName: __ZNSt3__122__compressed_pair_elemIPNS_11__tree_nodeIP4NodePvEELi0ELb0EEC2B7v160006IRS6_vEEOT_, symObjAddr: 0x3DDC, symBinAddr: 0x100004518, symSize: 0x24 }
  - { offsetInCU: 0x102C3, offset: 0x102C3, size: 0x8, addend: 0x0, symName: __ZNSt3__122__compressed_pair_elemINS_22__tree_node_destructorINS_9allocatorINS_11__tree_nodeIP4NodePvEEEEEELi1ELb0EEC2B7v160006IS9_vEEOT_, symObjAddr: 0x3E00, symBinAddr: 0x10000453C, symSize: 0x24 }
  - { offsetInCU: 0x10305, offset: 0x10305, size: 0x8, addend: 0x0, symName: __ZNSt3__19allocatorINS_11__tree_nodeIP4NodePvEEE9constructB7v160006IS3_JRKS3_EEEvPT_DpOT0_, symObjAddr: 0x3E24, symBinAddr: 0x100004560, symSize: 0x28 }
  - { offsetInCU: 0x1035B, offset: 0x1035B, size: 0x8, addend: 0x0, symName: __ZNKSt3__117__compressed_pairIPNS_11__tree_nodeIP4NodePvEENS_22__tree_node_destructorINS_9allocatorIS5_EEEEE5firstB7v160006Ev, symObjAddr: 0x3E4C, symBinAddr: 0x100004588, symSize: 0x24 }
  - { offsetInCU: 0x10381, offset: 0x10381, size: 0x8, addend: 0x0, symName: __ZNKSt3__122__compressed_pair_elemIPNS_11__tree_nodeIP4NodePvEELi0ELb0EE5__getB7v160006Ev, symObjAddr: 0x3E70, symBinAddr: 0x1000045AC, symSize: 0x14 }
  - { offsetInCU: 0x103A7, offset: 0x103A7, size: 0x8, addend: 0x0, symName: __ZNSt3__117__compressed_pairIPNS_11__tree_nodeIP4NodePvEENS_22__tree_node_destructorINS_9allocatorIS5_EEEEE6secondB7v160006Ev, symObjAddr: 0x3E84, symBinAddr: 0x1000045C0, symSize: 0x28 }
  - { offsetInCU: 0x103CD, offset: 0x103CD, size: 0x8, addend: 0x0, symName: __ZNSt3__122__compressed_pair_elemINS_22__tree_node_destructorINS_9allocatorINS_11__tree_nodeIP4NodePvEEEEEELi1ELb0EE5__getB7v160006Ev, symObjAddr: 0x3EAC, symBinAddr: 0x1000045E8, symSize: 0x14 }
  - { offsetInCU: 0x103F3, offset: 0x103F3, size: 0x8, addend: 0x0, symName: __ZNSt3__16__treeIP4NodeNS_4lessIS2_EENS_9allocatorIS2_EEE4sizeB7v160006Ev, symObjAddr: 0x4200, symBinAddr: 0x10000493C, symSize: 0x28 }
  - { offsetInCU: 0x10419, offset: 0x10419, size: 0x8, addend: 0x0, symName: __ZNKSt3__116__tree_node_baseIPvE15__parent_unsafeB7v160006Ev, symObjAddr: 0x4228, symBinAddr: 0x100004964, symSize: 0x18 }
  - { offsetInCU: 0x1043F, offset: 0x1043F, size: 0x8, addend: 0x0, symName: __ZNSt3__116__tree_node_baseIPvE12__set_parentB7v160006EPS2_, symObjAddr: 0x4424, symBinAddr: 0x100004B60, symSize: 0x20 }
  - { offsetInCU: 0x10474, offset: 0x10474, size: 0x8, addend: 0x0, symName: __ZNSt3__117__compressed_pairImNS_4lessIP4NodeEEE5firstB7v160006Ev, symObjAddr: 0x4444, symBinAddr: 0x100004B80, symSize: 0x24 }
  - { offsetInCU: 0x1049A, offset: 0x1049A, size: 0x8, addend: 0x0, symName: __ZNSt3__122__compressed_pair_elemImLi0ELb0EE5__getB7v160006Ev, symObjAddr: 0x4468, symBinAddr: 0x100004BA4, symSize: 0x14 }
  - { offsetInCU: 0x104C0, offset: 0x104C0, size: 0x8, addend: 0x0, symName: __ZNSt3__117__compressed_pairIPNS_11__tree_nodeIP4NodePvEENS_22__tree_node_destructorINS_9allocatorIS5_EEEEE5firstB7v160006Ev, symObjAddr: 0x447C, symBinAddr: 0x100004BB8, symSize: 0x24 }
  - { offsetInCU: 0x104E6, offset: 0x104E6, size: 0x8, addend: 0x0, symName: __ZNSt3__122__compressed_pair_elemIPNS_11__tree_nodeIP4NodePvEELi0ELb0EE5__getB7v160006Ev, symObjAddr: 0x44A0, symBinAddr: 0x100004BDC, symSize: 0x14 }
  - { offsetInCU: 0x1050C, offset: 0x1050C, size: 0x8, addend: 0x0, symName: __ZNSt3__110unique_ptrINS_11__tree_nodeIP4NodePvEENS_22__tree_node_destructorINS_9allocatorIS5_EEEEED2B7v160006Ev, symObjAddr: 0x44B4, symBinAddr: 0x100004BF0, symSize: 0x30 }
  - { offsetInCU: 0x10536, offset: 0x10536, size: 0x8, addend: 0x0, symName: __ZNSt3__110unique_ptrINS_11__tree_nodeIP4NodePvEENS_22__tree_node_destructorINS_9allocatorIS5_EEEEE5resetB7v160006EPS5_, symObjAddr: 0x44E4, symBinAddr: 0x100004C20, symSize: 0x78 }
  - { offsetInCU: 0x1057A, offset: 0x1057A, size: 0x8, addend: 0x0, symName: __ZNSt3__122__tree_node_destructorINS_9allocatorINS_11__tree_nodeIP4NodePvEEEEEclB7v160006EPS6_, symObjAddr: 0x455C, symBinAddr: 0x100004C98, symSize: 0x88 }
  - { offsetInCU: 0x105AF, offset: 0x105AF, size: 0x8, addend: 0x0, symName: __ZNSt3__115__tree_iteratorIP4NodePNS_11__tree_nodeIS2_PvEElEC2B7v160006ES6_, symObjAddr: 0x45E4, symBinAddr: 0x100004D20, symSize: 0x20 }
  - { offsetInCU: 0x105E8, offset: 0x105E8, size: 0x8, addend: 0x0, symName: __ZNSt3__14pairINS_15__tree_iteratorIP4NodePNS_11__tree_nodeIS3_PvEElEEbEC2B7v160006ERKS8_RKb, symObjAddr: 0x4604, symBinAddr: 0x100004D40, symSize: 0x38 }
  - { offsetInCU: 0x1062E, offset: 0x1062E, size: 0x8, addend: 0x0, symName: __ZNSt3__14pairINS_21__tree_const_iteratorIP4NodePNS_11__tree_nodeIS3_PvEElEEbEC2B7v160006INS_15__tree_iteratorIS3_S7_lEEbEERKNS0_IT_T0_EE, symObjAddr: 0x463C, symBinAddr: 0x100004D78, symSize: 0x50 }
  - { offsetInCU: 0x10678, offset: 0x10678, size: 0x8, addend: 0x0, symName: __ZNSt3__121__tree_const_iteratorIP4NodePNS_11__tree_nodeIS2_PvEElEC1B7v160006ENS_15__tree_iteratorIS2_S6_lEE, symObjAddr: 0x468C, symBinAddr: 0x100004DC8, symSize: 0x34 }
  - { offsetInCU: 0x106B1, offset: 0x106B1, size: 0x8, addend: 0x0, symName: __ZNSt3__121__tree_const_iteratorIP4NodePNS_11__tree_nodeIS2_PvEElEC2B7v160006ENS_15__tree_iteratorIS2_S6_lEE, symObjAddr: 0x46C0, symBinAddr: 0x100004DFC, symSize: 0x20 }
  - { offsetInCU: 0x106EA, offset: 0x106EA, size: 0x8, addend: 0x0, symName: __ZNKSt3__16__treeIP4NodeNS_4lessIS2_EENS_9allocatorIS2_EEE4sizeB7v160006Ev, symObjAddr: 0x46E0, symBinAddr: 0x100004E1C, symSize: 0x28 }
  - { offsetInCU: 0x10710, offset: 0x10710, size: 0x8, addend: 0x0, symName: __ZNKSt3__117__compressed_pairImNS_4lessIP4NodeEEE5firstB7v160006Ev, symObjAddr: 0x4708, symBinAddr: 0x100004E44, symSize: 0x24 }
  - { offsetInCU: 0x10736, offset: 0x10736, size: 0x8, addend: 0x0, symName: __ZNKSt3__122__compressed_pair_elemImLi0ELb0EE5__getB7v160006Ev, symObjAddr: 0x472C, symBinAddr: 0x100004E68, symSize: 0x14 }
  - { offsetInCU: 0x1075C, offset: 0x1075C, size: 0x8, addend: 0x0, symName: __ZNSt3__16__treeIP4NodeNS_4lessIS2_EENS_9allocatorIS2_EEE5beginB7v160006Ev, symObjAddr: 0x4740, symBinAddr: 0x100004E7C, symSize: 0x34 }
  - { offsetInCU: 0x10782, offset: 0x10782, size: 0x8, addend: 0x0, symName: __ZNSt3__115__tree_iteratorIP4NodePNS_11__tree_nodeIS2_PvEElEC1B7v160006EPNS_15__tree_end_nodeIPNS_16__tree_node_baseIS4_EEEE, symObjAddr: 0x4774, symBinAddr: 0x100004EB0, symSize: 0x34 }
  - { offsetInCU: 0x107BB, offset: 0x107BB, size: 0x8, addend: 0x0, symName: __ZNSt3__115__tree_iteratorIP4NodePNS_11__tree_nodeIS2_PvEElEC2B7v160006EPNS_15__tree_end_nodeIPNS_16__tree_node_baseIS4_EEEE, symObjAddr: 0x47A8, symBinAddr: 0x100004EE4, symSize: 0x20 }
  - { offsetInCU: 0x107F4, offset: 0x107F4, size: 0x8, addend: 0x0, symName: __ZNSt3__16__treeIP4NodeNS_4lessIS2_EENS_9allocatorIS2_EEE3endB7v160006Ev, symObjAddr: 0x47C8, symBinAddr: 0x100004F04, symSize: 0x34 }
  - { offsetInCU: 0x1081A, offset: 0x1081A, size: 0x8, addend: 0x0, symName: __ZNSt3__121__tree_const_iteratorIP4NodePNS_11__tree_nodeIS2_PvEElEppB7v160006Ev, symObjAddr: 0x482C, symBinAddr: 0x100004F68, symSize: 0x38 }
  - { offsetInCU: 0x10840, offset: 0x10840, size: 0x8, addend: 0x0, symName: __ZNKSt3__121__tree_const_iteratorIP4NodePNS_11__tree_nodeIS2_PvEElE8__get_npB7v160006Ev, symObjAddr: 0x4924, symBinAddr: 0x100005060, symSize: 0x18 }
  - { offsetInCU: 0x10866, offset: 0x10866, size: 0x8, addend: 0x0, symName: __ZNSt3__16__treeIP4NodeNS_4lessIS2_EENS_9allocatorIS2_EEE14__erase_uniqueIS2_EEmRKT_, symObjAddr: 0x493C, symBinAddr: 0x100005078, symSize: 0xA0 }
  - { offsetInCU: 0x108B5, offset: 0x108B5, size: 0x8, addend: 0x0, symName: __ZNSt3__16__treeIP4NodeNS_4lessIS2_EENS_9allocatorIS2_EEE4findIS2_EENS_15__tree_iteratorIS2_PNS_11__tree_nodeIS2_PvEElEERKT_, symObjAddr: 0x49DC, symBinAddr: 0x100005118, symSize: 0xF8 }
  - { offsetInCU: 0x10904, offset: 0x10904, size: 0x8, addend: 0x0, symName: __ZNSt3__16__treeIP4NodeNS_4lessIS2_EENS_9allocatorIS2_EEE5eraseENS_21__tree_const_iteratorIS2_PNS_11__tree_nodeIS2_PvEElEE, symObjAddr: 0x4B04, symBinAddr: 0x100005240, symSize: 0x98 }
  - { offsetInCU: 0x10968, offset: 0x10968, size: 0x8, addend: 0x0, symName: __ZNSt3__16__treeIP4NodeNS_4lessIS2_EENS_9allocatorIS2_EEE13__lower_boundIS2_EENS_15__tree_iteratorIS2_PNS_11__tree_nodeIS2_PvEElEERKT_SD_PNS_15__tree_end_nodeIPNS_16__tree_node_baseISB_EEEE, symObjAddr: 0x4B9C, symBinAddr: 0x1000052D8, symSize: 0xA4 }
  - { offsetInCU: 0x109C6, offset: 0x109C6, size: 0x8, addend: 0x0, symName: __ZNKSt3__115__tree_iteratorIP4NodePNS_11__tree_nodeIS2_PvEElEdeB7v160006Ev, symObjAddr: 0x4C74, symBinAddr: 0x1000053B0, symSize: 0x28 }
  - { offsetInCU: 0x109EC, offset: 0x109EC, size: 0x8, addend: 0x0, symName: __ZNKSt3__115__tree_iteratorIP4NodePNS_11__tree_nodeIS2_PvEElE8__get_npB7v160006Ev, symObjAddr: 0x4C9C, symBinAddr: 0x1000053D8, symSize: 0x18 }
  - { offsetInCU: 0x10A12, offset: 0x10A12, size: 0x8, addend: 0x0, symName: __ZNSt3__16__treeIP4NodeNS_4lessIS2_EENS_9allocatorIS2_EEE21__remove_node_pointerEPNS_11__tree_nodeIS2_PvEE, symObjAddr: 0x4CB4, symBinAddr: 0x1000053F0, symSize: 0xC8 }
  - { offsetInCU: 0x10A58, offset: 0x10A58, size: 0x8, addend: 0x0, symName: __ZNSt3__115__tree_iteratorIP4NodePNS_11__tree_nodeIS2_PvEElEppB7v160006Ev, symObjAddr: 0x4D7C, symBinAddr: 0x1000054B8, symSize: 0x38 }
  - { offsetInCU: 0x10A7E, offset: 0x10A7E, size: 0x8, addend: 0x0, symName: __ZNSt3__19basic_iosIcNS_11char_traitsIcEEEC2B7v160006Ev, symObjAddr: 0x5514, symBinAddr: 0x100005C50, symSize: 0x44 }
  - { offsetInCU: 0x10AA8, offset: 0x10AA8, size: 0x8, addend: 0x0, symName: __ZNSt3__113basic_ostreamIcNS_11char_traitsIcEEEC2B7v160006EPNS_15basic_streambufIcS2_EE, symObjAddr: 0x5558, symBinAddr: 0x100005C94, symSize: 0x60 }
  - { offsetInCU: 0x10AED, offset: 0x10AED, size: 0x8, addend: 0x0, symName: __ZNSt3__18ios_baseC2B7v160006Ev, symObjAddr: 0x55B8, symBinAddr: 0x100005CF4, symSize: 0x24 }
  - { offsetInCU: 0x10B17, offset: 0x10B17, size: 0x8, addend: 0x0, symName: __ZNSt3__19basic_iosIcNS_11char_traitsIcEEE4initB7v160006EPNS_15basic_streambufIcS2_EE, symObjAddr: 0x55DC, symBinAddr: 0x100005D18, symSize: 0x44 }
  - { offsetInCU: 0x10B4E, offset: 0x10B4E, size: 0x8, addend: 0x0, symName: __ZNSt3__16__treeINS_12__value_typeIibEENS_19__map_value_compareIiS2_NS_4lessIiEELb1EEENS_9allocatorIS2_EEE12__find_equalIiEERPNS_16__tree_node_baseIPvEERPNS_15__tree_end_nodeISE_EERKT_, symObjAddr: 0x5620, symBinAddr: 0x100005D5C, symSize: 0x184 }
  - { offsetInCU: 0x10BBB, offset: 0x10BBB, size: 0x8, addend: 0x0, symName: __ZNSt3__13mapIibNS_4lessIiEENS_9allocatorINS_4pairIKibEEEEE25__construct_node_with_keyERS5_, symObjAddr: 0x57A4, symBinAddr: 0x100005EE0, symSize: 0x144 }
  - { offsetInCU: 0x10C11, offset: 0x10C11, size: 0x8, addend: 0x0, symName: __ZNSt3__16__treeINS_12__value_typeIibEENS_19__map_value_compareIiS2_NS_4lessIiEELb1EEENS_9allocatorIS2_EEE16__insert_node_atEPNS_15__tree_end_nodeIPNS_16__tree_node_baseIPvEEEERSE_SE_, symObjAddr: 0x58E8, symBinAddr: 0x100006024, symSize: 0xCC }
  - { offsetInCU: 0x10C66, offset: 0x10C66, size: 0x8, addend: 0x0, symName: __ZNKSt3__110unique_ptrINS_11__tree_nodeINS_12__value_typeIibEEPvEENS_21__map_node_destructorINS_9allocatorIS5_EEEEE3getB7v160006Ev, symObjAddr: 0x59B4, symBinAddr: 0x1000060F0, symSize: 0x28 }
  - { offsetInCU: 0x10C8C, offset: 0x10C8C, size: 0x8, addend: 0x0, symName: __ZNSt3__110unique_ptrINS_11__tree_nodeINS_12__value_typeIibEEPvEENS_21__map_node_destructorINS_9allocatorIS5_EEEEE7releaseB7v160006Ev, symObjAddr: 0x59DC, symBinAddr: 0x100006118, symSize: 0x44 }
  - { offsetInCU: 0x10CC1, offset: 0x10CC1, size: 0x8, addend: 0x0, symName: __ZNSt3__110unique_ptrINS_11__tree_nodeINS_12__value_typeIibEEPvEENS_21__map_node_destructorINS_9allocatorIS5_EEEEED1B7v160006Ev, symObjAddr: 0x5A20, symBinAddr: 0x10000615C, symSize: 0x2C }
  - { offsetInCU: 0x10CEB, offset: 0x10CEB, size: 0x8, addend: 0x0, symName: __ZNKSt3__16__treeINS_12__value_typeIibEENS_19__map_value_compareIiS2_NS_4lessIiEELb1EEENS_9allocatorIS2_EEE10__root_ptrEv, symObjAddr: 0x5A4C, symBinAddr: 0x100006188, symSize: 0x24 }
  - { offsetInCU: 0x10D11, offset: 0x10D11, size: 0x8, addend: 0x0, symName: __ZNSt3__16__treeINS_12__value_typeIibEENS_19__map_value_compareIiS2_NS_4lessIiEELb1EEENS_9allocatorIS2_EEE10value_compB7v160006Ev, symObjAddr: 0x5A70, symBinAddr: 0x1000061AC, symSize: 0x28 }
  - { offsetInCU: 0x10D37, offset: 0x10D37, size: 0x8, addend: 0x0, symName: __ZNKSt3__119__map_value_compareIiNS_12__value_typeIibEENS_4lessIiEELb1EEclB7v160006ERKiRKS2_, symObjAddr: 0x5A98, symBinAddr: 0x1000061D4, symSize: 0x50 }
  - { offsetInCU: 0x10D7B, offset: 0x10D7B, size: 0x8, addend: 0x0, symName: __ZNKSt3__119__map_value_compareIiNS_12__value_typeIibEENS_4lessIiEELb1EEclB7v160006ERKS2_RKi, symObjAddr: 0x5AE8, symBinAddr: 0x100006224, symSize: 0x48 }
  - { offsetInCU: 0x10DBF, offset: 0x10DBF, size: 0x8, addend: 0x0, symName: __ZNSt3__117__compressed_pairImNS_19__map_value_compareIiNS_12__value_typeIibEENS_4lessIiEELb1EEEE6secondB7v160006Ev, symObjAddr: 0x5B30, symBinAddr: 0x10000626C, symSize: 0x24 }
  - { offsetInCU: 0x10DE5, offset: 0x10DE5, size: 0x8, addend: 0x0, symName: __ZNSt3__122__compressed_pair_elemINS_19__map_value_compareIiNS_12__value_typeIibEENS_4lessIiEELb1EEELi1ELb1EE5__getB7v160006Ev, symObjAddr: 0x5B54, symBinAddr: 0x100006290, symSize: 0x14 }
  - { offsetInCU: 0x10E0B, offset: 0x10E0B, size: 0x8, addend: 0x0, symName: __ZNKSt3__14lessIiEclB7v160006ERKiS3_, symObjAddr: 0x5B68, symBinAddr: 0x1000062A4, symSize: 0x34 }
  - { offsetInCU: 0x10E4F, offset: 0x10E4F, size: 0x8, addend: 0x0, symName: __ZNKSt3__112__value_typeIibE11__get_valueB7v160006Ev, symObjAddr: 0x5B9C, symBinAddr: 0x1000062D8, symSize: 0x14 }
  - { offsetInCU: 0x10E75, offset: 0x10E75, size: 0x8, addend: 0x0, symName: __ZNSt3__116allocator_traitsINS_9allocatorINS_11__tree_nodeINS_12__value_typeIibEEPvEEEEE8allocateB7v160006ERS7_m, symObjAddr: 0x5BB0, symBinAddr: 0x1000062EC, symSize: 0x2C }
  - { offsetInCU: 0x10EA8, offset: 0x10EA8, size: 0x8, addend: 0x0, symName: __ZNSt3__121__map_node_destructorINS_9allocatorINS_11__tree_nodeINS_12__value_typeIibEEPvEEEEEC1B7v160006ERS7_, symObjAddr: 0x5BDC, symBinAddr: 0x100006318, symSize: 0x34 }
  - { offsetInCU: 0x10EE6, offset: 0x10EE6, size: 0x8, addend: 0x0, symName: __ZNSt3__110unique_ptrINS_11__tree_nodeINS_12__value_typeIibEEPvEENS_21__map_node_destructorINS_9allocatorIS5_EEEEEC1B7v160006ILb1EvEEPS5_NS_16__dependent_typeINS_27__unique_ptr_deleter_sfinaeIS9_EEXT_EE20__good_rval_ref_typeE, symObjAddr: 0x5C10, symBinAddr: 0x10000634C, symSize: 0x3C }
  - { offsetInCU: 0x10F3C, offset: 0x10F3C, size: 0x8, addend: 0x0, symName: __ZNSt3__116allocator_traitsINS_9allocatorINS_11__tree_nodeINS_12__value_typeIibEEPvEEEEE9constructB7v160006IKiJRSA_EvEEvRS7_PT_DpOT0_, symObjAddr: 0x5C4C, symBinAddr: 0x100006388, symSize: 0x34 }
  - { offsetInCU: 0x10F93, offset: 0x10F93, size: 0x8, addend: 0x0, symName: __ZNKSt3__110unique_ptrINS_11__tree_nodeINS_12__value_typeIibEEPvEENS_21__map_node_destructorINS_9allocatorIS5_EEEEEptB7v160006Ev, symObjAddr: 0x5C80, symBinAddr: 0x1000063BC, symSize: 0x28 }
  - { offsetInCU: 0x10FB9, offset: 0x10FB9, size: 0x8, addend: 0x0, symName: __ZNSt3__110unique_ptrINS_11__tree_nodeINS_12__value_typeIibEEPvEENS_21__map_node_destructorINS_9allocatorIS5_EEEEE11get_deleterB7v160006Ev, symObjAddr: 0x5CA8, symBinAddr: 0x1000063E4, symSize: 0x24 }
  - { offsetInCU: 0x10FE4, offset: 0x10FE4, size: 0x8, addend: 0x0, symName: __ZNSt3__116allocator_traitsINS_9allocatorINS_11__tree_nodeINS_12__value_typeIibEEPvEEEEE9constructB7v160006IbJEvEEvRS7_PT_DpOT0_, symObjAddr: 0x5CCC, symBinAddr: 0x100006408, symSize: 0x2C }
  - { offsetInCU: 0x11026, offset: 0x11026, size: 0x8, addend: 0x0, symName: __ZNSt3__19allocatorINS_11__tree_nodeINS_12__value_typeIibEEPvEEE8allocateB7v160006Em, symObjAddr: 0x5CF8, symBinAddr: 0x100006434, symSize: 0x8C }
  - { offsetInCU: 0x11064, offset: 0x11064, size: 0x8, addend: 0x0, symName: __ZNSt3__116allocator_traitsINS_9allocatorINS_11__tree_nodeINS_12__value_typeIibEEPvEEEEE8max_sizeB7v160006IS7_vEEmRKS7_, symObjAddr: 0x5D84, symBinAddr: 0x1000064C0, symSize: 0x24 }
  - { offsetInCU: 0x11092, offset: 0x11092, size: 0x8, addend: 0x0, symName: __ZNKSt3__19allocatorINS_11__tree_nodeINS_12__value_typeIibEEPvEEE8max_sizeB7v160006Ev, symObjAddr: 0x5DA8, symBinAddr: 0x1000064E4, symSize: 0x18 }
  - { offsetInCU: 0x110B8, offset: 0x110B8, size: 0x8, addend: 0x0, symName: __ZNSt3__121__map_node_destructorINS_9allocatorINS_11__tree_nodeINS_12__value_typeIibEEPvEEEEEC2B7v160006ERS7_, symObjAddr: 0x5DC0, symBinAddr: 0x1000064FC, symSize: 0x28 }
  - { offsetInCU: 0x110F1, offset: 0x110F1, size: 0x8, addend: 0x0, symName: __ZNSt3__110unique_ptrINS_11__tree_nodeINS_12__value_typeIibEEPvEENS_21__map_node_destructorINS_9allocatorIS5_EEEEEC2B7v160006ILb1EvEEPS5_NS_16__dependent_typeINS_27__unique_ptr_deleter_sfinaeIS9_EEXT_EE20__good_rval_ref_typeE, symObjAddr: 0x5DE8, symBinAddr: 0x100006524, symSize: 0x5C }
  - { offsetInCU: 0x11142, offset: 0x11142, size: 0x8, addend: 0x0, symName: __ZNSt3__117__compressed_pairIPNS_11__tree_nodeINS_12__value_typeIibEEPvEENS_21__map_node_destructorINS_9allocatorIS5_EEEEEC1B7v160006IRS6_SA_EEOT_OT0_, symObjAddr: 0x5E44, symBinAddr: 0x100006580, symSize: 0x3C }
  - { offsetInCU: 0x1119A, offset: 0x1119A, size: 0x8, addend: 0x0, symName: __ZNSt3__117__compressed_pairIPNS_11__tree_nodeINS_12__value_typeIibEEPvEENS_21__map_node_destructorINS_9allocatorIS5_EEEEEC2B7v160006IRS6_SA_EEOT_OT0_, symObjAddr: 0x5E80, symBinAddr: 0x1000065BC, symSize: 0x48 }
  - { offsetInCU: 0x111F2, offset: 0x111F2, size: 0x8, addend: 0x0, symName: __ZNSt3__122__compressed_pair_elemIPNS_11__tree_nodeINS_12__value_typeIibEEPvEELi0ELb0EEC2B7v160006IRS6_vEEOT_, symObjAddr: 0x5EC8, symBinAddr: 0x100006604, symSize: 0x24 }
  - { offsetInCU: 0x11234, offset: 0x11234, size: 0x8, addend: 0x0, symName: __ZNSt3__122__compressed_pair_elemINS_21__map_node_destructorINS_9allocatorINS_11__tree_nodeINS_12__value_typeIibEEPvEEEEEELi1ELb0EEC2B7v160006IS9_vEEOT_, symObjAddr: 0x5EEC, symBinAddr: 0x100006628, symSize: 0x24 }
  - { offsetInCU: 0x11276, offset: 0x11276, size: 0x8, addend: 0x0, symName: __ZNSt3__19allocatorINS_11__tree_nodeINS_12__value_typeIibEEPvEEE9constructB7v160006IKiJRS8_EEEvPT_DpOT0_, symObjAddr: 0x5F10, symBinAddr: 0x10000664C, symSize: 0x28 }
  - { offsetInCU: 0x112CC, offset: 0x112CC, size: 0x8, addend: 0x0, symName: __ZNKSt3__117__compressed_pairIPNS_11__tree_nodeINS_12__value_typeIibEEPvEENS_21__map_node_destructorINS_9allocatorIS5_EEEEE5firstB7v160006Ev, symObjAddr: 0x5F38, symBinAddr: 0x100006674, symSize: 0x24 }
  - { offsetInCU: 0x112F2, offset: 0x112F2, size: 0x8, addend: 0x0, symName: __ZNKSt3__122__compressed_pair_elemIPNS_11__tree_nodeINS_12__value_typeIibEEPvEELi0ELb0EE5__getB7v160006Ev, symObjAddr: 0x5F5C, symBinAddr: 0x100006698, symSize: 0x14 }
  - { offsetInCU: 0x11318, offset: 0x11318, size: 0x8, addend: 0x0, symName: __ZNSt3__117__compressed_pairIPNS_11__tree_nodeINS_12__value_typeIibEEPvEENS_21__map_node_destructorINS_9allocatorIS5_EEEEE6secondB7v160006Ev, symObjAddr: 0x5F70, symBinAddr: 0x1000066AC, symSize: 0x28 }
  - { offsetInCU: 0x1133E, offset: 0x1133E, size: 0x8, addend: 0x0, symName: __ZNSt3__122__compressed_pair_elemINS_21__map_node_destructorINS_9allocatorINS_11__tree_nodeINS_12__value_typeIibEEPvEEEEEELi1ELb0EE5__getB7v160006Ev, symObjAddr: 0x5F98, symBinAddr: 0x1000066D4, symSize: 0x14 }
  - { offsetInCU: 0x11364, offset: 0x11364, size: 0x8, addend: 0x0, symName: __ZNSt3__19allocatorINS_11__tree_nodeINS_12__value_typeIibEEPvEEE9constructB7v160006IbJEEEvPT_DpOT0_, symObjAddr: 0x5FAC, symBinAddr: 0x1000066E8, symSize: 0x1C }
  - { offsetInCU: 0x113A6, offset: 0x113A6, size: 0x8, addend: 0x0, symName: __ZNSt3__16__treeINS_12__value_typeIibEENS_19__map_value_compareIiS2_NS_4lessIiEELb1EEENS_9allocatorIS2_EEE4sizeB7v160006Ev, symObjAddr: 0x5FC8, symBinAddr: 0x100006704, symSize: 0x28 }
  - { offsetInCU: 0x113CC, offset: 0x113CC, size: 0x8, addend: 0x0, symName: __ZNSt3__117__compressed_pairImNS_19__map_value_compareIiNS_12__value_typeIibEENS_4lessIiEELb1EEEE5firstB7v160006Ev, symObjAddr: 0x5FF0, symBinAddr: 0x10000672C, symSize: 0x24 }
  - { offsetInCU: 0x113F2, offset: 0x113F2, size: 0x8, addend: 0x0, symName: __ZNSt3__117__compressed_pairIPNS_11__tree_nodeINS_12__value_typeIibEEPvEENS_21__map_node_destructorINS_9allocatorIS5_EEEEE5firstB7v160006Ev, symObjAddr: 0x6014, symBinAddr: 0x100006750, symSize: 0x24 }
  - { offsetInCU: 0x11418, offset: 0x11418, size: 0x8, addend: 0x0, symName: __ZNSt3__122__compressed_pair_elemIPNS_11__tree_nodeINS_12__value_typeIibEEPvEELi0ELb0EE5__getB7v160006Ev, symObjAddr: 0x6038, symBinAddr: 0x100006774, symSize: 0x14 }
  - { offsetInCU: 0x1143E, offset: 0x1143E, size: 0x8, addend: 0x0, symName: __ZNSt3__110unique_ptrINS_11__tree_nodeINS_12__value_typeIibEEPvEENS_21__map_node_destructorINS_9allocatorIS5_EEEEED2B7v160006Ev, symObjAddr: 0x604C, symBinAddr: 0x100006788, symSize: 0x30 }
  - { offsetInCU: 0x11468, offset: 0x11468, size: 0x8, addend: 0x0, symName: __ZNSt3__110unique_ptrINS_11__tree_nodeINS_12__value_typeIibEEPvEENS_21__map_node_destructorINS_9allocatorIS5_EEEEE5resetB7v160006EPS5_, symObjAddr: 0x607C, symBinAddr: 0x1000067B8, symSize: 0x78 }
  - { offsetInCU: 0x114AC, offset: 0x114AC, size: 0x8, addend: 0x0, symName: __ZNSt3__121__map_node_destructorINS_9allocatorINS_11__tree_nodeINS_12__value_typeIibEEPvEEEEEclB7v160006EPS6_, symObjAddr: 0x60F4, symBinAddr: 0x100006830, symSize: 0xE4 }
  - { offsetInCU: 0x114E1, offset: 0x114E1, size: 0x8, addend: 0x0, symName: __ZNSt3__116allocator_traitsINS_9allocatorINS_11__tree_nodeINS_12__value_typeIibEEPvEEEEE7destroyB7v160006IbvvEEvRS7_PT_, symObjAddr: 0x61D8, symBinAddr: 0x100006914, symSize: 0x14 }
  - { offsetInCU: 0x1151C, offset: 0x1151C, size: 0x8, addend: 0x0, symName: __ZNSt3__116allocator_traitsINS_9allocatorINS_11__tree_nodeINS_12__value_typeIibEEPvEEEEE7destroyB7v160006IKivvEEvRS7_PT_, symObjAddr: 0x61EC, symBinAddr: 0x100006928, symSize: 0x14 }
  - { offsetInCU: 0x11557, offset: 0x11557, size: 0x8, addend: 0x0, symName: __ZNSt3__111char_traitsIcE6lengthEPKc, symObjAddr: 0x63F4, symBinAddr: 0x100006B30, symSize: 0x48 }
  - { offsetInCU: 0x11598, offset: 0x11598, size: 0x8, addend: 0x0, symName: __ZNKSt3__113basic_ostreamIcNS_11char_traitsIcEEE6sentrycvbB7v160006Ev, symObjAddr: 0x643C, symBinAddr: 0x100006B78, symSize: 0x1C }
  - { offsetInCU: 0x115BE, offset: 0x115BE, size: 0x8, addend: 0x0, symName: __ZNSt3__119ostreambuf_iteratorIcNS_11char_traitsIcEEEC1B7v160006ERNS_13basic_ostreamIcS2_EE, symObjAddr: 0x66A0, symBinAddr: 0x100006DDC, symSize: 0x34 }
  - { offsetInCU: 0x115F6, offset: 0x115F6, size: 0x8, addend: 0x0, symName: __ZNKSt3__18ios_base5flagsB7v160006Ev, symObjAddr: 0x66D4, symBinAddr: 0x100006E10, symSize: 0x18 }
  - { offsetInCU: 0x1161E, offset: 0x1161E, size: 0x8, addend: 0x0, symName: __ZNKSt3__19basic_iosIcNS_11char_traitsIcEEE4fillB7v160006Ev, symObjAddr: 0x66EC, symBinAddr: 0x100006E28, symSize: 0x64 }
  - { offsetInCU: 0x11646, offset: 0x11646, size: 0x8, addend: 0x0, symName: __ZNKSt3__119ostreambuf_iteratorIcNS_11char_traitsIcEEE6failedB7v160006Ev, symObjAddr: 0x6750, symBinAddr: 0x100006E8C, symSize: 0x24 }
  - { offsetInCU: 0x1166C, offset: 0x1166C, size: 0x8, addend: 0x0, symName: __ZNSt3__115basic_streambufIcNS_11char_traitsIcEEE5sputnB7v160006EPKcl, symObjAddr: 0x6774, symBinAddr: 0x100006EB0, symSize: 0x3C }
  - { offsetInCU: 0x116AE, offset: 0x116AE, size: 0x8, addend: 0x0, symName: __ZNSt3__112basic_stringIcNS_11char_traitsIcEENS_9allocatorIcEEEC1B7v160006Emc, symObjAddr: 0x67B0, symBinAddr: 0x100006EEC, symSize: 0x3C }
  - { offsetInCU: 0x116F6, offset: 0x116F6, size: 0x8, addend: 0x0, symName: __ZNKSt3__112basic_stringIcNS_11char_traitsIcEENS_9allocatorIcEEE4dataB7v160006Ev, symObjAddr: 0x67EC, symBinAddr: 0x100006F28, symSize: 0x28 }
  - { offsetInCU: 0x1171C, offset: 0x1171C, size: 0x8, addend: 0x0, symName: __ZNSt3__112basic_stringIcNS_11char_traitsIcEENS_9allocatorIcEEEC2B7v160006Emc, symObjAddr: 0x6814, symBinAddr: 0x100006F50, symSize: 0x54 }
  - { offsetInCU: 0x11764, offset: 0x11764, size: 0x8, addend: 0x0, symName: __ZNKSt3__112basic_stringIcNS_11char_traitsIcEENS_9allocatorIcEEE13__get_pointerB7v160006Ev, symObjAddr: 0x687C, symBinAddr: 0x100006FB8, symSize: 0x54 }
  - { offsetInCU: 0x1178A, offset: 0x1178A, size: 0x8, addend: 0x0, symName: __ZNKSt3__112basic_stringIcNS_11char_traitsIcEENS_9allocatorIcEEE18__get_long_pointerB7v160006Ev, symObjAddr: 0x68D0, symBinAddr: 0x10000700C, symSize: 0x28 }
  - { offsetInCU: 0x117B0, offset: 0x117B0, size: 0x8, addend: 0x0, symName: __ZNKSt3__112basic_stringIcNS_11char_traitsIcEENS_9allocatorIcEEE19__get_short_pointerB7v160006Ev, symObjAddr: 0x68F8, symBinAddr: 0x100007034, symSize: 0x28 }
  - { offsetInCU: 0x117D6, offset: 0x117D6, size: 0x8, addend: 0x0, symName: __ZNSt3__114pointer_traitsIPKcE10pointer_toB7v160006ERS1_, symObjAddr: 0x6920, symBinAddr: 0x10000705C, symSize: 0x14 }
  - { offsetInCU: 0x117F9, offset: 0x117F9, size: 0x8, addend: 0x0, symName: __ZNSt3__119ostreambuf_iteratorIcNS_11char_traitsIcEEEC2B7v160006ERNS_13basic_ostreamIcS2_EE, symObjAddr: 0x6934, symBinAddr: 0x100007070, symSize: 0x68 }
  - { offsetInCU: 0x11831, offset: 0x11831, size: 0x8, addend: 0x0, symName: __ZNKSt3__19basic_iosIcNS_11char_traitsIcEEE5widenB7v160006Ec, symObjAddr: 0x699C, symBinAddr: 0x1000070D8, symSize: 0x8C }
  - { offsetInCU: 0x11868, offset: 0x11868, size: 0x8, addend: 0x0, symName: __ZNKSt3__15ctypeIcE5widenB7v160006Ec, symObjAddr: 0x6A28, symBinAddr: 0x100007164, symSize: 0x38 }
  - { offsetInCU: 0x1189D, offset: 0x1189D, size: 0x8, addend: 0x0, symName: __ZNSt3__18ios_base9precisionB7v160006El, symObjAddr: 0x6A84, symBinAddr: 0x1000071C0, symSize: 0x2C }
...
